
mytimer.o:     file format elf64-littleaarch64

Contents of section .text:
 0000 e10300aa 60008052 00000014 1f2003d5  ....`..R..... ..
 0010 fd7bbca9 fd030091 f35301a9 13000090  .{.......S......
 0020 73020091 a1a30091 620240f9 a21f00f9  s.......b.@.....
 0030 020080d2 f40300aa 60008052 00000094  ........`..R....
 0040 810a40a9 044099d2 a08f42a9 4473a7f2  ..@..@....B.Ds..
 0050 0102005c 000001cb a51f40f9 610240f9  ...\......@.a.@.
 0060 a10001ca 000c049b 000002cb 0000629e  ..............b.
 0070 0008611e a10000b5 f35341a9 0000789e  ..a......SA...x.
 0080 fd7bc4a8 c0035fd6 00000094 1f2003d5  .{...._...... ..
 0090 fca9f1d2 4d62503f fd7bbea9 fd030091  ....MbP?.{......
 00a0 f30b00f9 f30301aa 00000094 e30300aa  ................
 00b0 e20313aa 01000090 f30b40f9 21000091  ..........@.!...
 00c0 fd7bc2a8 20008052 00000014           .{.. ..R....    
Contents of section .rodata.str1.8:
 0000 25733a20 256c6c75 0a00               %s: %llu..      
Contents of section .debug_info:
 0000 0e050000 04000000 00000801 00000000  ................
 0010 0c000000 00000000 00000000 00000000  ................
 0020 00cc0000 00000000 00000000 00020000  ................
 0030 000003d8 38000000 03080700 00000003  ....8...........
 0040 01080000 00000302 07000000 00030407  ................
 0050 00000000 03010600 00000003 02050000  ................
 0060 00000404 05696e74 00030805 00000000  .....int........
 0070 02000000 00048369 00000002 00000000  .......i........
 0080 04846900 00000308 07000000 00020000  ..i.............
 0090 0000048b 69000000 05080200 00000004  ....i...........
 00a0 af690000 000608ab 00000003 01080000  .i..............
 00b0 00000700 000000d8 05f12f02 00000800  ........../.....
 00c0 00000005 f2620000 00000800 00000005  .....b..........
 00d0 f7a50000 00080800 00000005 f8a50000  ................
 00e0 00100800 00000005 f9a50000 00180800  ................
 00f0 00000005 faa50000 00200800 00000005  ......... ......
 0100 fba50000 00280800 00000005 fca50000  .....(..........
 0110 00300800 00000005 fda50000 00380800  .0...........8..
 0120 00000005 fea50000 00400900 00000005  .........@......
 0130 0001a500 00004809 00000000 050101a5  ......H.........
 0140 00000050 09000000 00050201 a5000000  ...P............
 0150 58090000 00000504 01670200 00600900  X........g...`..
 0160 00000005 06016d02 00006809 00000000  ......m...h.....
 0170 05080162 00000070 09000000 00050c01  ...b...p........
 0180 62000000 74090000 0000050e 01700000  b...t........p..
 0190 00780900 00000005 12014600 00008009  .x........F.....
 01a0 00000000 05130154 00000082 09000000  .......T........
 01b0 00051401 73020000 83090000 00000518  ....s...........
 01c0 01830200 00880900 00000005 21017b00  ............!.{.
 01d0 00009009 00000000 05290198 00000098  .........)......
 01e0 09000000 00052a01 98000000 a0090000  ......*.........
 01f0 0000052b 01980000 00a80900 00000005  ...+............
 0200 2c019800 0000b009 00000000 052e012d  ,..............-
 0210 000000b8 09000000 00052f01 62000000  ........../.b...
 0220 c0090000 00000531 01890200 00c4000a  .......1........
 0230 00000000 05960700 00000018 059c6702  ..............g.
 0240 00000800 00000005 9d670200 00000800  .........g......
 0250 00000005 9e6d0200 00080800 00000005  .....m..........
 0260 a2620000 00100006 08360200 000608b2  .b.......6......
 0270 0000000b ab000000 83020000 0c860000  ................
 0280 00000006 082f0200 000bab00 00009902  ...../..........
 0290 00000c86 00000013 0006089f 0200000d  ................
 02a0 ab000000 03080500 00000007 00000000  ................
 02b0 100678d0 02000008 00000000 067a8d00  ..x..........z..
 02c0 00000008 00000000 067b9a00 00000800  .........{......
 02d0 03080700 00000007 00000000 10070af0  ................
 02e0 02000008 00000000 070bab02 00000000  ................
 02f0 02000000 00070cd7 0200000e 00000000  ................
 0300 0107a402 0000012d 0300000f 656e6400  .......-....end.
 0310 0107ab02 00001000 00000001 07ab0200  ................
 0320 00110000 00000109 2d030000 00030804  ........-.......
 0330 00000000 12000000 00026662 00000003  ..........fb....
 0340 51030000 10000000 00026651 03000013  Q.........fQ....
 0350 00149902 00001500 00000001 0d000000  ................
 0360 00000000 000c0000 00000000 00019c9b  ................
 0370 03000016 7400010d 9b030000 00000000  ....t...........
 0380 17000000 00000000 00f10400 00180150  ...............P
 0390 01331801 5103f301 50000006 08f00200  .3..Q...P.......
 03a0 00190000 00000113 a4020000 00000000  ................
 03b0 00000000 7c000000 00000000 019c3d04  ....|.........=.
 03c0 00001674 0001139b 03000000 0000001a  ...t............
 03d0 6e6f7700 0115ab02 00000291 681bfb02  now.........h...
 03e0 00000000 00000000 00000000 00000117  ................
 03f0 12040000 1c160300 00000000 001c0b03  ................
 0400 00000000 00001d00 0000001e 21030000  ............!...
 0410 00001f00 00000000 000000f1 0400002f  .............../
 0420 04000018 01500133 18015102 8f380020  .....P.3..Q..8. 
 0430 00000000 00000000 fd040000 00150000  ................
 0440 0000011a 00000000 00000000 34000000  ............4...
 0450 00000000 019cdb04 00001674 00011a9b  ...........t....
 0460 03000000 00000021 00000000 011a9902  .......!........
 0470 00000000 00001b34 03000000 00000000  .......4........
 0480 00000000 00000001 1cc50400 00224403  ............."D.
 0490 00000a03 00000000 00000000 9f170000  ................
 04a0 00000000 00000605 00001801 50013118  ............P.1.
 04b0 01510903 00000000 00000000 18015203  .Q............R.
 04c0 f3015100 00230000 00000000 0000a103  ..Q..#..........
 04d0 00001801 5003f301 50000024 00000000  ....P...P..$....
 04e0 08a86d02 00002400 00000008 a96d0200  ..m...$......m..
 04f0 00250000 00000000 00000656 01260000  .%.........V.&..
 0500 00000000 00002700 00000000 00000002  ......'.........
 0510 5700                                 W.              
Contents of section .debug_abbrev:
 0000 01110125 0e130b03 0e1b0e11 01120710  ...%............
 0010 17000002 1600030e 3a0b3b0b 49130000  ........:.;.I...
 0020 0324000b 0b3e0b03 0e000004 24000b0b  .$...>......$...
 0030 3e0b0308 0000050f 000b0b00 00060f00  >...............
 0040 0b0b4913 00000713 01030e0b 0b3a0b3b  ..I..........:.;
 0050 0b011300 00080d00 030e3a0b 3b0b4913  ..........:.;.I.
 0060 380b0000 090d0003 0e3a0b3b 05491338  8........:.;.I.8
 0070 0b00000a 1600030e 3a0b3b0b 00000b01  ........:.;.....
 0080 01491301 1300000c 21004913 2f0b0000  .I......!.I./...
 0090 0d260049 1300000e 2e01030e 3a0b3b0b  .&.I........:.;.
 00a0 27194913 200b0113 00000f05 0003083a  '.I. ..........:
 00b0 0b3b0b49 13000010 0500030e 3a0b3b0b  .;.I........:.;.
 00c0 49130000 11340003 0e3a0b3b 0b491300  I....4...:.;.I..
 00d0 00122e01 3f19030e 3a0b3b0b 27194913  ....?...:.;.'.I.
 00e0 200b3419 01130000 13180000 00143700   .4...........7.
 00f0 49130000 152e013f 19030e3a 0b3b0b27  I......?...:.;.'
 0100 19110112 07401897 42190113 00001605  .....@..B.......
 0110 0003083a 0b3b0b49 13021700 00178982  ...:.;.I........
 0120 01011101 95421931 13000018 8a820100  .....B.1........
 0130 02189142 18000019 2e013f19 030e3a0b  ...B......?...:.
 0140 3b0b2719 49131101 12074018 97421901  ;.'.I.....@..B..
 0150 1300001a 34000308 3a0b3b0b 49130218  ....4...:.;.I...
 0160 00001b1d 01311352 01551758 0b590b01  .....1.R.U.X.Y..
 0170 1300001c 05003113 02170000 1d0b0155  ......1........U
 0180 1700001e 34003113 00001f89 82010111  ....4.1.........
 0190 01311301 13000020 89820100 11013113  .1..... ......1.
 01a0 00002105 00030e3a 0b3b0b49 13021700  ..!....:.;.I....
 01b0 00220500 31130218 00002389 82010111  ."..1.....#.....
 01c0 01311300 00243400 030e3a0b 3b0b4913  .1...$4...:.;.I.
 01d0 3f193c19 0000252e 003f193c 196e0e03  ?.<...%..?.<.n..
 01e0 0e3a0b3b 05000026 2e003f19 3c196e0e  .:.;...&..?.<.n.
 01f0 030e0000 272e003f 193c196e 0e030e3a  ....'..?.<.n...:
 0200 0b3b0b00 0000                        .;....          
Contents of section .debug_loc:
 0000 00000000 00000000 08000000 00000000  ................
 0010 01005008 00000000 0000000b 00000000  ..P.............
 0020 00000001 00510b00 00000000 00000c00  .....Q..........
 0030 00000000 00000400 f301509f 00000000  ..........P.....
 0040 00000000 00000000 00000000 10000000  ................
 0050 00000000 3c000000 00000000 0100503c  ....<.........P<
 0060 00000000 0000007c 00000000 00000001  .......|........
 0070 00647c00 00000000 00008800 00000000  .d|.............
 0080 00000400 f301509f 88000000 00000000  ......P.........
 0090 8c000000 00000000 01006400 00000000  ..........d.....
 00a0 00000000 00000000 00000040 00000000  ...........@....
 00b0 0000007c 00000000 00000008 00840093  ...|............
 00c0 08840893 087c0000 00000000 00880000  .....|..........
 00d0 00000000 000800f3 01509308 52930888  .........P..R...
 00e0 00000000 0000008b 00000000 00000007  ................
 00f0 00840093 08529308 00000000 00000000  .....R..........
 0100 00000000 00000000 40000000 00000000  ........@.......
 0110 84000000 00000000 09008f38 93088fc0  ...........8....
 0120 00930884 00000000 00000088 00000000  ................
 0130 00000007 008f7893 08539308 88000000  ......x..S......
 0140 00000000 8b000000 00000000 07008f38  ...............8
 0150 93085393 08000000 00000000 00000000  ..S.............
 0160 00000000 00980000 00000000 00ab0000  ................
 0170 00000000 00010050 ab000000 00000000  .......P........
 0180 cc000000 00000000 0400f301 509f0000  ............P...
 0190 00000000 00000000 00000000 00009800  ................
 01a0 00000000 0000ab00 00000000 00000100  ................
 01b0 51ab0000 00000000 00bc0000 00000000  Q...............
 01c0 00010063 bc000000 00000000 cb000000  ...c............
 01d0 00000000 010052cb 00000000 000000cc  ......R.........
 01e0 00000000 00000004 00f30151 9f000000  ...........Q....
 01f0 00000000 00000000 00000000 00        .............   
Contents of section .debug_aranges:
 0000 2c000000 02000000 00000800 00000000  ,...............
 0010 00000000 00000000 cc000000 00000000  ................
 0020 00000000 00000000 00000000 00000000  ................
Contents of section .debug_ranges:
 0000 40000000 00000000 58000000 00000000  @.......X.......
 0010 64000000 00000000 74000000 00000000  d.......t.......
 0020 00000000 00000000 00000000 00000000  ................
 0030 ac000000 00000000 b8000000 00000000  ................
 0040 bc000000 00000000 c0000000 00000000  ................
 0050 c4000000 00000000 cc000000 00000000  ................
 0060 00000000 00000000 00000000 00000000  ................
Contents of section .debug_line:
 0000 16010000 0200ca00 00000401 fb0e0d00  ................
 0010 01010101 00000001 0000012f 7573722f  .........../usr/
 0020 696e636c 7564652f 61617263 6836342d  include/aarch64-
 0030 6c696e75 782d676e 752f6269 7473002f  linux-gnu/bits./
 0040 7573722f 6c69622f 6763632f 61617263  usr/lib/gcc/aarc
 0050 6836342d 6c696e75 782d676e 752f352f  h64-linux-gnu/5/
 0060 696e636c 75646500 2f757372 2f696e63  include./usr/inc
 0070 6c756465 00006d79 74696d65 722e6300  lude..mytimer.c.
 0080 00000073 7464696f 322e6800 01000073  ...stdio2.h....s
 0090 74646465 662e6800 02000074 79706573  tddef.h....types
 00a0 2e680001 00006c69 62696f2e 68000300  .h....libio.h...
 00b0 0074696d 652e6800 0300006d 7974696d  .time.h....mytim
 00c0 65722e68 00000000 73746469 6f2e6800  er.h....stdio.h.
 00d0 03000000 00090200 00000000 00000003  ................
 00e0 0d01134f 3c301e4c 03742e03 0e660372  ...O<0.L.t...f.r
 00f0 3c030e4a 933c2104 0203cc00 20040103  <..J.<!..... ...
 0100 b57f3c04 0203cb00 20040103 b57f2004  ..<..... ..... .
 0110 0203cb00 20020200 0101               .... .....      
Contents of section .debug_str:
 0000 7072696e 7466005f 5f6f6666 5f74005f  printf.__off_t._
 0010 494f5f72 6561645f 70747200 5f636861  IO_read_ptr._cha
 0020 696e0073 697a655f 74005f73 686f7274  in.size_t._short
 0030 62756600 5f494f5f 6275665f 62617365  buf._IO_buf_base
 0040 006c6f6e 67206c6f 6e672075 6e736967  .long long unsig
 0050 6e656420 696e7400 636c6f63 6b5f6765  ned int.clock_ge
 0060 7474696d 65006c6f 6e67206c 6f6e6720  ttime.long long 
 0070 696e7400 7369676e 65642063 68617200  int.signed char.
 0080 5f66696c 656e6f00 5f494f5f 72656164  _fileno._IO_read
 0090 5f656e64 006c6f6e 6720696e 74005f66  _end.long int._f
 00a0 6c616773 005f494f 5f627566 5f656e64  lags._IO_buf_end
 00b0 005f6375 725f636f 6c756d6e 00646f75  ._cur_column.dou
 00c0 626c6500 5f5f7072 696e7466 5f63686b  ble.__printf_chk
 00d0 005f6f6c 645f6f66 66736574 005f6f66  ._old_offset._of
 00e0 66736574 005f6d79 74696d65 72006d79  fset._mytimer.my
 00f0 74696d65 725f656c 61707365 64005f49  timer_elapsed._I
 0100 4f5f6d61 726b6572 00737464 696e0075  O_marker.stdin.u
 0110 6e736967 6e656420 696e7400 6c6f6e67  nsigned int.long
 0120 20756e73 69676e65 6420696e 74005f49   unsigned int._I
 0130 4f5f7772 6974655f 70747200 5f736275  O_write_ptr._sbu
 0140 66007368 6f727420 756e7369 676e6564  f.short unsigned
 0150 20696e74 005f494f 5f736176 655f6261   int._IO_save_ba
 0160 7365006d 7974696d 6572005f 6c6f636b  se.mytimer._lock
 0170 005f666c 61677332 005f6d6f 64650073  ._flags2._mode.s
 0180 74646f75 74007072 65666978 006d7964  tdout.prefix.myd
 0190 69666674 696d6500 74765f6e 73656300  ifftime.tv_nsec.
 01a0 73697a65 74797065 0074765f 73656300  sizetype.tv_sec.
 01b0 5f5f7379 7363616c 6c5f736c 6f6e675f  __syscall_slong_
 01c0 74005f49 4f5f7772 6974655f 656e6400  t._IO_write_end.
 01d0 64696666 5f696e5f 6e616e6f 005f494f  diff_in_nano._IO
 01e0 5f6c6f63 6b5f7400 5f494f5f 46494c45  _lock_t._IO_FILE
 01f0 00474e55 20433939 20352e34 2e302032  .GNU C99 5.4.0 2
 0200 30313630 36303920 2d6d6c69 74746c65  0160609 -mlittle
 0210 2d656e64 69616e20 2d6d6162 693d6c70  -endian -mabi=lp
 0220 3634202d 67202d4f 32202d73 74643d67  64 -g -O2 -std=g
 0230 6e753939 202d6673 7461636b 2d70726f  nu99 -fstack-pro
 0240 74656374 6f722d73 74726f6e 67005f70  tector-strong._p
 0250 6f73006d 7974696d 65725f70 72696e74  os.mytimer_print
 0260 5f656c61 70736564 005f6d61 726b6572  _elapsed._marker
 0270 7300756e 7369676e 65642063 68617200  s.unsigned char.
 0280 73686f72 7420696e 74007469 6d657370  short int.timesp
 0290 6563005f 76746162 6c655f6f 66667365  ec._vtable_offse
 02a0 74005f5f 73746163 6b5f6368 6b5f6661  t.__stack_chk_fa
 02b0 696c006d 7974696d 65722e63 00636861  il.mytimer.c.cha
 02c0 72005f6e 65787400 5f5f6f66 6636345f  r._next.__off64_
 02d0 74005f49 4f5f7265 61645f62 61736500  t._IO_read_base.
 02e0 5f494f5f 73617665 5f656e64 002f686f  _IO_save_end./ho
 02f0 6d652f75 62756e74 752f776f 726b2f6e  me/ubuntu/work/n
 0300 66732f64 656c6574 656d6530 31005f5f  fs/deleteme01.__
 0310 666d7400 6d797469 6d65725f 73746172  fmt.mytimer_star
 0320 74005f5f 70616431 005f5f70 61643200  t.__pad1.__pad2.
 0330 5f5f7061 6433005f 5f706164 34005f5f  __pad3.__pad4.__
 0340 70616435 005f5f74 696d655f 74005f75  pad5.__time_t._u
 0350 6e757365 6432005f 494f5f62 61636b75  nused2._IO_backu
 0360 705f6261 73650073 74617274 005f494f  p_base.start._IO
 0370 5f777269 74655f62 61736500           _write_base.    
Contents of section .comment:
 0000 00474343 3a202855 62756e74 752f4c69  .GCC: (Ubuntu/Li
 0010 6e61726f 20352e34 2e302d36 7562756e  naro 5.4.0-6ubun
 0020 7475317e 31362e30 342e3429 20352e34  tu1~16.04.4) 5.4
 0030 2e302032 30313630 36303900           .0 20160609.    
Contents of section .debug_frame:
 0000 0c000000 ffffffff 01000478 1e0c1f00  ...........x....
 0010 14000000 00000000 00000000 00000000  ................
 0020 0c000000 00000000 34000000 00000000  ........4.......
 0030 00000000 00000000 7c000000 00000000  ........|.......
 0040 410e409d 089e0741 0d1d4193 0694055a  A.@....A..A....Z
 0050 0adeddd3 d40c1f00 410b0000 00000000  ........A.......
 0060 2c000000 00000000 00000000 00000000  ,...............
 0070 34000000 00000000 410e209d 049e0341  4.......A. ....A
 0080 0d1d4193 0248dedd d30c1f00 00000000  ..A..H..........

Disassembly of section .text:

0000000000000000 <mytimer_start>:
   0:	aa0003e1 	mov	x1, x0
   4:	52800060 	mov	w0, #0x3                   	// #3
   8:	14000000 	b	0 <clock_gettime>
   c:	d503201f 	nop

0000000000000010 <mytimer_elapsed>:
  10:	a9bc7bfd 	stp	x29, x30, [sp,#-64]!
  14:	910003fd 	mov	x29, sp
  18:	a90153f3 	stp	x19, x20, [sp,#16]
  1c:	90000013 	adrp	x19, 0 <__stack_chk_guard>
  20:	91000273 	add	x19, x19, #0x0
  24:	9100a3a1 	add	x1, x29, #0x28
  28:	f9400262 	ldr	x2, [x19]
  2c:	f9001fa2 	str	x2, [x29,#56]
  30:	d2800002 	mov	x2, #0x0                   	// #0
  34:	aa0003f4 	mov	x20, x0
  38:	52800060 	mov	w0, #0x3                   	// #3
  3c:	94000000 	bl	0 <clock_gettime>
  40:	a9400a81 	ldp	x1, x2, [x20]
  44:	d2994004 	mov	x4, #0xca00                	// #51712
  48:	a9428fa0 	ldp	x0, x3, [x29,#40]
  4c:	f2a77344 	movk	x4, #0x3b9a, lsl #16
  50:	5c000201 	ldr	d1, 90 <mytimer_elapsed+0x80>
  54:	cb010000 	sub	x0, x0, x1
  58:	f9401fa5 	ldr	x5, [x29,#56]
  5c:	f9400261 	ldr	x1, [x19]
  60:	ca0100a1 	eor	x1, x5, x1
  64:	9b040c00 	madd	x0, x0, x4, x3
  68:	cb020000 	sub	x0, x0, x2
  6c:	9e620000 	scvtf	d0, x0
  70:	1e610800 	fmul	d0, d0, d1
  74:	b50000a1 	cbnz	x1, 88 <mytimer_elapsed+0x78>
  78:	a94153f3 	ldp	x19, x20, [sp,#16]
  7c:	9e780000 	fcvtzs	x0, d0
  80:	a8c47bfd 	ldp	x29, x30, [sp],#64
  84:	d65f03c0 	ret
  88:	94000000 	bl	0 <__stack_chk_fail>
  8c:	d503201f 	nop
  90:	d2f1a9fc 	.word	0xd2f1a9fc
  94:	3f50624d 	.word	0x3f50624d

0000000000000098 <mytimer_print_elapsed>:
  98:	a9be7bfd 	stp	x29, x30, [sp,#-32]!
  9c:	910003fd 	mov	x29, sp
  a0:	f9000bf3 	str	x19, [sp,#16]
  a4:	aa0103f3 	mov	x19, x1
  a8:	94000000 	bl	10 <mytimer_elapsed>
  ac:	aa0003e3 	mov	x3, x0
  b0:	aa1303e2 	mov	x2, x19
  b4:	90000001 	adrp	x1, 0 <mytimer_start>
  b8:	f9400bf3 	ldr	x19, [sp,#16]
  bc:	91000021 	add	x1, x1, #0x0
  c0:	a8c27bfd 	ldp	x29, x30, [sp],#32
  c4:	52800020 	mov	w0, #0x1                   	// #1
  c8:	14000000 	b	0 <__printf_chk>
