
v1.o:     file format elf64-littleaarch64

Contents of section .text:
 0000 fd7baaa9 222080d2 01008052 fd030091  .{.." .....R....
 0010 f35301a9 13000090 63020091 f76303a9  .S......c....c..
 0020 640040f9 a4af00f9 040080d2 f80300aa  d.@.............
 0030 a0430191 f55b02a9 17d340a9 16074079  .C...[....@...@y
 0040 15034079 00000094 e10318aa a0430191  ..@y.........C..
 0050 00000094 00e28452 00000094 a0030191  .......R........
 0060 00000094 56080034 a7060051 61008052  ....V..4...Qa..R
 0070 600080d2 a806150b 06008052 05008052  `..........R...R
 0080 e700a19b d5060034 c17c4093 e400018b  .......4.|@.....
 0090 8302018b 8402048b e106018b 22084079  ............".@y
 00a0 2b044079 2a004079 406c1c53 0000024b  +.@y*.@y@l.S...K
 00b0 696d1c53 426d1c53 29010b4b 42000a4b  im.SBm.S)..KB..K
 00c0 ab833ad1 00701d53 0a7c0f13 297d0413  ..:..p.S.|..)}..
 00d0 427c0413 005847d3 6ac12a8b 29040079  B|...XG.j.*.)..y
 00e0 20080079 001c0053 22000079 49c17b39   ..y...S"..yI.{9
 00f0 42c57b39 4200094b 407c001b 2021800b  B.{9B..K@|.. !..
 0100 60080039 20044079 093c48d3 6901098b  `..9 .@y.<H.i...
 0110 021c0053 2ac17b39 20c57b39 00000a4b  ...S*.{9 .{9...K
 0120 007c021b 4021800b 60040039 20644078  .|..@!..`..9 d@x
 0130 093c48d3 6901098b 021c0053 2ac17b39  .<H.i......S*.{9
 0140 20c57b39 00000a4b 007c021b 4021800b   .{9...K.|..@!..
 0150 60340038 7f0004eb 21faff54 a5040011  `4.8....!..T....
 0160 c600080b bf00166b e1f8ff54 01000090  .......k...T....
 0170 a0030191 21000091 73020091 00000094  ....!...s.......
 0180 00e28452 00000094 e00318aa 00000094  ...R............
 0190 a2af40f9 610240f9 410001ca c10000b5  ..@.a.@.A.......
 01a0 f35341a9 f55b42a9 f76343a9 fd7bd6a8  .SA..[B..cC..{..
 01b0 c0035fd6 00000094                    .._.....        
Contents of section .text.startup:
 0000 fd7bbaa9 02a08052 015a8052 fd030091  .{.....R.Z.R....
 0010 f51300f9 15000090 a3020091 a0030191  ................
 0020 640040f9 a42f00f9 040080d2 f35301a9  d.@../.......S..
 0030 f4cf92d2 13000090 1413a0f2 73020091  ............s...
 0040 00000094 a0c30091 00000094 a0030191  ................
 0050 00000094 021c0053 e10313aa 20008052  .......S.... ..R
 0060 00000094 a0030191 00000094 a0c30091  ................
 0070 00000094 1f0014eb adfeff54 a0030191  ...........T....
 0080 b5020091 00000094 a02f40f9 a10240f9  ........./@...@.
 0090 010001ca 00008052 a10000b5 f35341a9  .......R.....SA.
 00a0 f51340f9 fd7bc6a8 c0035fd6 00000094  ..@..{...._.....
Contents of section .rodata.str1.8:
 0000 6c6f6f70 20696e20 76310000 00000000  loop in v1......
 0010 2530780a 00                          %0x..           
Contents of section .debug_info:
 0000 ba080000 04000000 00000801 00000000  ................
 0010 0c000000 00000000 00000000 00000000  ................
 0020 00000000 00000000 00020000 000003d8  ................
 0030 34000000 03080700 00000003 01080000  4...............
 0040 00000302 07000000 00030407 00000000  ................
 0050 03010600 00000003 02050000 00000404  ................
 0060 05696e74 00030805 00000000 02000000  .int............
 0070 00048365 00000002 00000000 04846500  ...e..........e.
 0080 00000308 07000000 00020000 0000048b  ................
 0090 65000000 05080200 00000004 af650000  e............e..
 00a0 000608a7 00000003 01080000 00000700  ................
 00b0 000000d8 05f12b02 00000800 00000005  ......+.........
 00c0 f25e0000 00000800 00000005 f7a10000  .^..............
 00d0 00080800 00000005 f8a10000 00100800  ................
 00e0 00000005 f9a10000 00180800 00000005  ................
 00f0 faa10000 00200800 00000005 fba10000  ..... ..........
 0100 00280800 00000005 fca10000 00300800  .(...........0..
 0110 00000005 fda10000 00380800 00000005  .........8......
 0120 fea10000 00400900 00000005 0001a100  .....@..........
 0130 00004809 00000000 050101a1 00000050  ..H............P
 0140 09000000 00050201 a1000000 58090000  ............X...
 0150 00000504 01630200 00600900 00000005  .....c...`......
 0160 06016902 00006809 00000000 0508015e  ..i...h........^
 0170 00000070 09000000 00050c01 5e000000  ...p........^...
 0180 74090000 0000050e 016c0000 00780900  t........l...x..
 0190 00000005 12014200 00008009 00000000  ......B.........
 01a0 05130150 00000082 09000000 00051401  ...P............
 01b0 6f020000 83090000 00000518 017f0200  o...............
 01c0 00880900 00000005 21017700 00009009  ........!.w.....
 01d0 00000000 05290194 00000098 09000000  .....)..........
 01e0 00052a01 94000000 a0090000 0000052b  ..*............+
 01f0 01940000 00a80900 00000005 2c019400  ............,...
 0200 0000b009 00000000 052e0129 000000b8  ...........)....
 0210 09000000 00052f01 5e000000 c0090000  ....../.^.......
 0220 00000531 01850200 00c4000a 00000000  ...1............
 0230 05960700 00000018 059c6302 00000800  ..........c.....
 0240 00000005 9d630200 00000800 00000005  .....c..........
 0250 9e690200 00080800 00000005 a25e0000  .i...........^..
 0260 00100006 08320200 000608ae 0000000b  .....2..........
 0270 a7000000 7f020000 0c820000 00000006  ................
 0280 082b0200 000ba700 00009502 00000c82  .+..............
 0290 00000013 0006089b 0200000d a7000000  ................
 02a0 02000000 0006303b 00000002 00000000  ......0;........
 02b0 06314200 00000700 00000018 070ef302  .1B.............
 02c0 00000800 00000007 0fab0200 00000800  ................
 02d0 00000007 10ab0200 00020800 00000007  ................
 02e0 11f30200 00080800 00000007 12f90200  ................
 02f0 00100006 08ab0200 000608a0 02000002  ................
 0300 00000000 0713b602 00000700 00000010  ................
 0310 08782f03 00000800 00000008 7a890000  .x/.........z...
 0320 00000800 00000008 7b960000 00080007  ........{.......
 0330 00000000 10090a48 03000008 00000000  .......H........
 0340 090b0a03 00000000 02000000 00090c2f  .............../
 0350 0300000e 00000000 0152a002 0000019b  .........R......
 0360 0300000f 00000000 01525e00 00000f00  .........R^.....
 0370 00000001 52f90200 000f0000 00000152  ....R..........R
 0380 5e000000 10696478 0001545e 00000010  ^....idx..T^....
 0390 6f757400 0155a002 00000011 00000000  out..U..........
 03a0 02665e00 000003b8 0300000f 00000000  .f^.............
 03b0 0266b803 00001200 13950200 00140000  .f..............
 03c0 00000120 a0020000 00000000 00000000  ... ............
 03d0 b8010000 00000000 019c9d06 00001561  ...............a
 03e0 72670001 209d0600 00000000 00160000  rg.. ...........
 03f0 00000122 f3020000 01671700 00000001  ...".....g......
 0400 23f90200 00000000 00170000 00000124  #..............$
 0410 ab020000 00000000 17000000 000125ab  ..............%.
 0420 02000000 00000018 00000000 0126a002  .............&..
 0430 00000816 00000000 0127a306 00000391  .........'......
 0440 f07d1600 00000001 29480300 000391e0  .}......)H......
 0450 7d190000 00000000 00000801 00000000  }...............
 0460 0000c205 00001a69 0001325e 00000000  .......i..2^....
 0470 0000001b 00000000 00000000 d8000000  ................
 0480 00000000 1a6a0001 345e0000 00000000  .....j..4^......
 0490 001b0000 00000000 0000b800 00000000  ................
 04a0 00001a72 000136f3 02000000 0000001a  ...r..6.........
 04b0 67000136 f3020000 00000000 1a620001  g..6.........b..
 04c0 36f30200 00000000 00170000 00000137  6..............7
 04d0 f9020000 00000000 17000000 000137f9  ..............7.
 04e0 02000000 00000017 00000000 0137f902  .............7..
 04f0 00000000 00001c53 03000000 00000000  .......S........
 0500 00000000 00000001 45350500 001d7903  ........E5....y.
 0510 00000000 00001d6e 03000000 0000001e  .......n........
 0520 63030000 1f000000 00208403 0000208f  c........ .... .
 0530 03000000 001c5303 00000000 00000000  ......S.........
 0540 00000000 00000146 7c050000 1d790300  .......F|....y..
 0550 00000000 001d6e03 00000000 00001d63  ......n........c
 0560 03000000 0000001f 00000000 21840300  ............!...
 0570 00000000 00208f03 00000000 22530300  ..... ......"S..
 0580 00000000 00000000 00000000 0001471d  ..............G.
 0590 79030000 00000000 1d6e0300 00000000  y........n......
 05a0 001d6303 00000000 00001f00 00000021  ..c............!
 05b0 84030000 00000000 208f0300 00000000  ........ .......
 05c0 00002300 00000000 0000003c 080000e7  ..#........<....
 05d0 05000024 0150038f 80012401 51013024  ...$.P....$.Q.0$
 05e0 0152030a 01010023 00000000 00000000  .R.....#........
 05f0 45080000 06060000 24015003 8f800124  E.......$.P....$
 0600 01510288 00002300 00000000 00000050  .Q....#........P
 0610 0800001f 06000024 0150030a 10270023  .......$.P...'.#
 0620 00000000 00000000 5c080000 38060000  ........\...8...
 0630 24015003 8ff00000 23000000 00000000  $.P.....#.......
 0640 00670800 005e0600 00240150 038ff000  .g...^...$.P....
 0650 24015109 03000000 00000000 00002300  $.Q...........#.
 0660 00000000 00000050 08000077 06000024  .......P...w...$
 0670 0150030a 10270023 00000000 00000000  .P...'.#........
 0680 72080000 8f060000 24015002 88000025  r.......$.P....%
 0690 00000000 00000000 7d080000 000608ff  ........}.......
 06a0 0200000b a0020000 b4060000 26820000  ............&...
 06b0 00000100 14000000 0001085e 00000000  ...........^....
 06c0 00000000 000000b0 00000000 00000001  ................
 06d0 9c190800 00270000 00000108 5e000000  .....'......^...
 06e0 00000000 27000000 00010819 08000000  ....'...........
 06f0 00000028 61726700 010aff02 00000291  ...(arg.........
 0700 60160000 0000010b 48030000 02915017  `.......H.....P.
 0710 00000000 010d1f08 00000000 00002900  ..............).
 0720 00000001 0f1f0800 00809698 001c9b03  ................
 0730 00000000 00000000 00000000 00000116  ................
 0740 67070000 1dab0300 00000000 002a0000  g............*..
 0750 00000000 00008608 00002401 50013124  ..........$.P.1$
 0760 01510283 00000023 00000000 00000000  .Q.....#........
 0770 91080000 8e070000 24015003 8fe00024  ........$.P....$
 0780 0151030a d0022401 52030a00 05002300  .Q....$.R.....#.
 0790 00000000 0000005c 080000a7 07000024  .......\.......$
 07a0 0150038f d0000023 00000000 00000000  .P.....#........
 07b0 bd030000 c0070000 24015003 8fe00000  ........$.P.....
 07c0 23000000 00000000 009c0800 00d90700  #...............
 07d0 00240150 038fe000 00230000 00000000  .$.P.....#......
 07e0 0000a708 0000f207 00002401 50038fd0  ..........$.P...
 07f0 00002300 00000000 000000b2 0800000b  ..#.............
 0800 08000024 0150038f e0000025 00000000  ...$.P.....%....
 0810 00000000 7d080000 000608a1 00000003  ....}...........
 0820 08050000 00002b00 0000000a a8690200  ......+......i..
 0830 002b0000 00000aa9 69020000 2c000000  .+......i...,...
 0840 00000000 002d0000 00000000 0000071d  .....-..........
 0850 2e000000 00000000 000bcf01 2d000000  ............-...
 0860 00000000 00090e2d 00000000 00000000  .......-........
 0870 09132d00 00000000 00000007 1b2c0000  ..-..........,..
 0880 00000000 00002d00 00000000 00000002  ......-.........
 0890 572d0000 00000000 00000718 2d000000  W-..........-...
 08a0 00000000 0007192d 00000000 00000000  .......-........
 08b0 09112d00 00000000 00000007 1a00      ..-...........  
Contents of section .debug_abbrev:
 0000 01110125 0e130b03 0e1b0e55 17110110  ...%.......U....
 0010 17000002 1600030e 3a0b3b0b 49130000  ........:.;.I...
 0020 0324000b 0b3e0b03 0e000004 24000b0b  .$...>......$...
 0030 3e0b0308 0000050f 000b0b00 00060f00  >...............
 0040 0b0b4913 00000713 01030e0b 0b3a0b3b  ..I..........:.;
 0050 0b011300 00080d00 030e3a0b 3b0b4913  ..........:.;.I.
 0060 380b0000 090d0003 0e3a0b3b 05491338  8........:.;.I.8
 0070 0b00000a 1600030e 3a0b3b0b 00000b01  ........:.;.....
 0080 01491301 1300000c 21004913 2f0b0000  .I......!.I./...
 0090 0d260049 1300000e 2e01030e 3a0b3b0b  .&.I........:.;.
 00a0 27194913 200b0113 00000f05 00030e3a  '.I. ..........:
 00b0 0b3b0b49 13000010 34000308 3a0b3b0b  .;.I....4...:.;.
 00c0 49130000 112e013f 19030e3a 0b3b0b27  I......?...:.;.'
 00d0 19491320 0b341901 13000012 18000000  .I. .4..........
 00e0 13370049 13000014 2e013f19 030e3a0b  .7.I......?...:.
 00f0 3b0b2719 49131101 12074018 97421901  ;.'.I.....@..B..
 0100 13000015 05000308 3a0b3b0b 49130217  ........:.;.I...
 0110 00001634 00030e3a 0b3b0b49 13021800  ...4...:.;.I....
 0120 00173400 030e3a0b 3b0b4913 02170000  ..4...:.;.I.....
 0130 18340003 0e3a0b3b 0b49131c 0b000019  .4...:.;.I......
 0140 0b011101 12070113 00001a34 0003083a  ...........4...:
 0150 0b3b0b49 13021700 001b0b01 11011207  .;.I............
 0160 00001c1d 01311352 01551758 0b590b01  .....1.R.U.X.Y..
 0170 1300001d 05003113 02170000 1e050031  ......1........1
 0180 1300001f 0b015517 00002034 00311300  ......U... 4.1..
 0190 00213400 31130217 0000221d 01311352  .!4.1....."..1.R
 01a0 01551758 0b590b00 00238982 01011101  .U.X.Y...#......
 01b0 31130113 0000248a 82010002 18914218  1.....$.......B.
 01c0 00002589 82010011 01311300 00262100  ..%......1...&!.
 01d0 49132f05 00002705 00030e3a 0b3b0b49  I./...'....:.;.I
 01e0 13021700 00283400 03083a0b 3b0b4913  .....(4...:.;.I.
 01f0 02180000 29340003 0e3a0b3b 0b49131c  ....)4...:.;.I..
 0200 0600002a 89820101 11013113 00002b34  ...*......1...+4
 0210 00030e3a 0b3b0b49 133f193c 1900002c  ...:.;.I.?.<...,
 0220 2e003f19 3c196e0e 030e0000 2d2e003f  ..?.<.n.....-..?
 0230 193c196e 0e030e3a 0b3b0b00 002e2e00  .<.n...:.;......
 0240 3f193c19 6e0e030e 3a0b3b05 000000    ?.<.n...:.;.... 
Contents of section .debug_loc:
 0000 00000000 00000000 00000000 00000000  ................
 0010 01005000 00000000 00000000 00000000  ..P.............
 0020 00000001 00680000 00000000 00000000  .....h..........
 0030 00000000 00000400 f301509f 00000000  ..........P.....
 0040 00000000 00000000 00000000 01006800  ..............h.
 0050 00000000 00000000 00000000 00000000  ................
 0060 00000000 00000000 00000000 00000001  ................
 0070 00640000 00000000 00000000 00000000  .d..............
 0080 00000100 64000000 00000000 00000000  ....d...........
 0090 00000000 00000000 00000000 00000000  ................
 00a0 00000000 00010066 00000000 00000000  .......f........
 00b0 00000000 00000000 01006600 00000000  ..........f.....
 00c0 00000000 00000000 00000000 00000000  ................
 00d0 00000000 00000000 00000001 00650000  .............e..
 00e0 00000000 00000000 00000000 00000100  ................
 00f0 65000000 00000000 00000000 00000000  e...............
 0100 00000000 00000000 00000000 00000000  ................
 0110 00020030 9f000000 00000000 00000000  ...0............
 0120 00000000 00010055 00000000 00000000  .......U........
 0130 00000000 00000000 00000000 00000000  ................
 0140 00000000 00000000 0200309f 00000000  ..........0.....
 0150 00000000 00000000 00000000 00000000  ................
 0160 00000000 00000000 00000000 03007104  ..............q.
 0170 9f000000 00000000 00000000 00000000  ................
 0180 00030071 7e9f0000 00000000 00000000  ...q~...........
 0190 00000000 00000000 00000000 00000000  ................
 01a0 00000000 00000300 71029f00 00000000  ........q.......
 01b0 00000000 00000000 00000003 00717c9f  .............q|.
 01c0 00000000 00000000 00000000 00000000  ................
 01d0 00000000 00000000 00000000 00000000  ................
 01e0 01005100 00000000 00000000 00000000  ..Q.............
 01f0 00000003 00717a9f 00000000 00000000  .....qz.........
 0200 00000000 00000000 00000000 00000000  ................
 0210 00000000 00000000 03007302 9f000000  ..........s.....
 0220 00000000 00000000 00000000 00030073  ...............s
 0230 7f9f0000 00000000 00000000 00000000  ................
 0240 00000000 00000000 00000000 00000000  ................
 0250 00000300 73019f00 00000000 00000000  ....s...........
 0260 00000000 00000003 00737e9f 00000000  .........s~.....
 0270 00000000 00000000 00000000 00000000  ................
 0280 00000000 00000000 00000000 01005300  ..............S.
 0290 00000000 00000000 00000000 00000003  ................
 02a0 00737d9f 00000000 00000000 00000000  .s}.............
 02b0 00000000 00000000 00000000 00000000  ................
 02c0 00000000 0200389f 00000000 00000000  ......8.........
 02d0 00000000 00000000 00000000 00000000  ................
 02e0 00000000 00000000 04008f80 019f0000  ................
 02f0 00000000 00000000 00000000 00000000  ................
 0300 00000000 00000000 00000000 00000200  ................
 0310 389f0000 00000000 00000000 00000000  8...............
 0320 00000000 00000000 00000000 00000000  ................
 0330 00000400 8f80019f 00000000 00000000  ................
 0340 00000000 00000000 00000000 00000000  ................
 0350 00000000 00000000 07007000 0affff1a  ..........p.....
 0360 9f000000 00000000 00000000 00000000  ................
 0370 00000000 00000000 00000000 00000000  ................
 0380 00090070 000affff 1a38269f 00000000  ...p.....8&.....
 0390 00000000 00000000 00000000 00000000  ................
 03a0 00000000 00000000 00000000 0200389f  ..............8.
 03b0 00000000 00000000 00000000 00000000  ................
 03c0 00000000 00000000 00000000 00000000  ................
 03d0 04008f80 019f0000 00000000 00000000  ................
 03e0 00000000 00000000 00000000 00000000  ................
 03f0 00000000 00000700 70000aff ff1a9f00  ........p.......
 0400 00000000 00000000 00000000 00000000  ................
 0410 00000000 00000000 00000000 00000009  ................
 0420 0070000a ffff1a38 269f0000 00000000  .p.....8&.......
 0430 00000000 00000000 00000000 00000000  ................
 0440 00000000 00000000 00000100 50000000  ............P...
 0450 00000000 00000000 00000000 000400f3  ................
 0460 01509f00 00000000 00000000 00000000  .P..............
 0470 00000000 00000000 00000000 00000000  ................
 0480 00000001 00510000 00000000 00000000  .....Q..........
 0490 00000000 00000400 f301519f 00000000  ..........Q.....
 04a0 00000000 00000000 00000000 00000000  ................
 04b0 00000000 00000000 00000000 0200309f  ..............0.
 04c0 00000000 00000000 00000000 00000000  ................
 04d0 01005000 00000000 00000000 00000000  ..P.............
 04e0 00000000 00000000 00000000 00000000  ................
 04f0 0000000a 00030000 00000000 00009f00  ................
 0500 00000000 00000000 00000000 000000    ............... 
Contents of section .debug_aranges:
 0000 3c000000 02000000 00000800 00000000  <...............
 0010 00000000 00000000 b8010000 00000000  ................
 0020 00000000 00000000 b0000000 00000000  ................
 0030 00000000 00000000 00000000 00000000  ................
Contents of section .debug_ranges:
 0000 00000000 00000000 00000000 00000000  ................
 0010 00000000 00000000 00000000 00000000  ................
 0020 00000000 00000000 00000000 00000000  ................
 0030 00000000 00000000 00000000 00000000  ................
 0040 00000000 00000000 00000000 00000000  ................
 0050 00000000 00000000 00000000 00000000  ................
 0060 00000000 00000000 00000000 00000000  ................
 0070 00000000 00000000 00000000 00000000  ................
 0080 00000000 00000000 00000000 00000000  ................
 0090 00000000 00000000 00000000 00000000  ................
 00a0 00000000 00000000 00000000 00000000  ................
 00b0 00000000 00000000 00000000 00000000  ................
 00c0 00000000 00000000 00000000 00000000  ................
 00d0 00000000 00000000 00000000 00000000  ................
 00e0 00000000 00000000 00000000 00000000  ................
 00f0 00000000 00000000 00000000 00000000  ................
 0100 00000000 00000000 00000000 00000000  ................
Contents of section .debug_line:
 0000 24020000 0200e900 00000401 fb0e0d00  $...............
 0010 01010101 00000001 0000012f 7573722f  .........../usr/
 0020 696e636c 7564652f 61617263 6836342d  include/aarch64-
 0030 6c696e75 782d676e 752f6269 7473002f  linux-gnu/bits./
 0040 7573722f 6c69622f 6763632f 61617263  usr/lib/gcc/aarc
 0050 6836342d 6c696e75 782d676e 752f352f  h64-linux-gnu/5/
 0060 696e636c 75646500 2f757372 2f696e63  include./usr/inc
 0070 6c756465 00007631 2e630000 00007374  lude..v1.c....st
 0080 64696f32 2e680001 00007374 64646566  dio2.h....stddef
 0090 2e680002 00007479 7065732e 68000100  .h....types.h...
 00a0 006c6962 696f2e68 00030000 73746469  .libio.h....stdi
 00b0 6e742e68 00030000 636f6d6d 6f6e2e68  nt.h....common.h
 00c0 00000000 74696d65 2e680003 00006d79  ....time.h....my
 00d0 74696d65 722e6800 00000073 7464696f  timer.h....stdio
 00e0 2e680003 0000756e 69737464 2e680003  .h....unistd.h..
 00f0 00000000 09020000 00000000 00000320  ............... 
 0100 0126037a 2e96037a 20222121 22244030  .&.z...z "!!"$@0
 0110 2f000204 01840002 04036e00 02040321  /.........n....!
 0120 00020403 21000204 031e0002 04032f00  ....!........./.
 0130 02040321 00020403 1f000204 03210002  ...!.........!..
 0140 0403031a 20000204 03036420 00020403  .... .....d ....
 0150 031c2000 02040303 65200002 04032100  .. .....e ....!.
 0160 0204031e 00020403 031c2000 02040303  .......... .....
 0170 65200002 04031f00 02040303 09200002  e ........... ..
 0180 04030379 20000204 03031a20 00020403  ...y ...... ....
 0190 036d2000 02040359 00020403 03122000  .m ....Y...... .
 01a0 02040303 6e2e0002 04030312 20000204  ....n....... ...
 01b0 03036e20 00020403 59000204 03031120  ..n ....Y...... 
 01c0 00020403 036f2e00 02040303 11200002  .....o....... ..
 01d0 0403036f 20000204 03036d58 2c03184a  ...o .....mX,..J
 01e0 42037a20 23302f02 0a000101 00090200  B.z #0/.........
 01f0 00000000 0000001a 2803782e 52037820  ........(.x.R.x 
 0200 030b4a04 0203d400 3c040103 a97f2022  ..J.....<..... "
 0210 31040203 d2002e04 0103af7f 4a2f2a35  1...........J/*5
 0220 231d2302 0a000101                    #.#.....        
Contents of section .debug_str:
 0000 74765f6e 73656300 6d797469 6d657200  tv_nsec.mytimer.
 0010 5f6f6c64 5f6f6666 73657400 5f5f7072  _old_offset.__pr
 0020 696e7466 5f63686b 00706978 656c0067  intf_chk.pixel.g
 0030 65745f65 715f6761 6d6d6100 5f494f5f  et_eq_gamma._IO_
 0040 46494c45 0075736c 65657000 74765f73  FILE.usleep.tv_s
 0050 6563005f 494f5f73 6176655f 656e6400  ec._IO_save_end.
 0060 73686f72 7420696e 74007369 7a655f74  short int.size_t
 0070 00537263 52474200 73697a65 74797065  .SrcRGB.sizetype
 0080 005f6f66 66736574 00756e74 696c005f  ._offset.until._
 0090 494f5f77 72697465 5f707472 005f666c  IO_write_ptr._fl
 00a0 61677300 5f5f7379 7363616c 6c5f736c  ags.__syscall_sl
 00b0 6f6e675f 74005f49 4f5f6275 665f6261  ong_t._IO_buf_ba
 00c0 73650075 70646174 655f5372 63524742  se.update_SrcRGB
 00d0 005f6c6f 636b006d 7974696d 65725f73  ._lock.mytimer_s
 00e0 74617274 005f6d61 726b6572 73005f49  tart._markers._I
 00f0 4f5f7265 61645f65 6e64006c 6f6f7034  O_read_end.loop4
 0100 5f763100 75696e74 385f7400 74696d65  _v1.uint8_t.time
 0110 72006475 72617469 6f6e5f75 73007769  r.duration_us.wi
 0120 64746800 6c6f6e67 206c6f6e 6720696e  dth.long long in
 0130 74006d79 74696d65 725f7072 696e745f  t.mytimer_print_
 0140 656c6170 73656400 474e5520 43393920  elapsed.GNU C99 
 0150 352e342e 30203230 31363036 3039202d  5.4.0 20160609 -
 0160 6d6c6974 746c652d 656e6469 616e202d  mlittle-endian -
 0170 6d616269 3d6c7036 34202d67 202d4f32  mabi=lp64 -g -O2
 0180 202d7374 643d676e 75393920 2d667374   -std=gnu99 -fst
 0190 61636b2d 70726f74 6563746f 722d7374  ack-protector-st
 01a0 726f6e67 006d656d 73657400 6c6f6e67  rong.memset.long
 01b0 20696e74 00707269 6e746600 64657374   int.printf.dest
 01c0 726f7900 5f637572 5f636f6c 756d6e00  roy._cur_column.
 01d0 5f5f7061 6434005f 706f7300 6d797469  __pad4._pos.myti
 01e0 6d65725f 656c6170 73656400 61726776  mer_elapsed.argv
 01f0 005f7674 61626c65 5f6f6666 73657400  ._vtable_offset.
 0200 756e7369 676e6564 20636861 72006269  unsigned char.bi
 0210 6e5f7769 64746800 61726763 00736967  n_width.argc.sig
 0220 6e656420 63686172 00704473 74524742  ned char.pDstRGB
 0230 00756e73 69676e65 6420696e 74005f49  .unsigned int._I
 0240 4f5f6d61 726b6572 005f7368 6f727462  O_marker._shortb
 0250 75660070 53726352 47420041 7267756d  uf.pSrcRGB.Argum
 0260 656e7400 5f5f6f66 6636345f 74005f5f  ent.__off64_t.__
 0270 70616432 005f494f 5f777269 74655f62  pad2._IO_write_b
 0280 61736500 5f5f7061 64330064 6f5f7573  ase.__pad3.do_us
 0290 656c6573 73007374 61727400 5f494f5f  eless.start._IO_
 02a0 6275665f 656e6400 6f75745f 62006f75  buf_end.out_b.ou
 02b0 745f6700 63686172 0075696e 7431365f  t_g.char.uint16_
 02c0 74006d61 696e0065 715f6761 6d6d6100  t.main.eq_gamma.
 02d0 5f5f7061 6431006f 75745f72 005f6e65  __pad1.out_r._ne
 02e0 7874002f 686f6d65 2f756275 6e74752f  xt./home/ubuntu/
 02f0 776f726b 2f6e6673 2f64656c 6574656d  work/nfs/deletem
 0300 65303100 5f5f7061 64350068 65696768  e01.__pad5.heigh
 0310 74005f49 4f5f6261 636b7570 5f626173  t._IO_backup_bas
 0320 65007368 6f727420 756e7369 676e6564  e.short unsigned
 0330 20696e74 005f5f66 6d740067 616d6d61   int.__fmt.gamma
 0340 5f636f72 72656374 696f6e00 76312e63  _correction.v1.c
 0350 006c6f6e 6720756e 7369676e 65642069  .long unsigned i
 0360 6e74005f 494f5f77 72697465 5f656e64  nt._IO_write_end
 0370 005f5f74 696d655f 74005f66 696c656e  .__time_t._filen
 0380 6f005f63 6861696e 005f5f6f 66665f74  o._chain.__off_t
 0390 005f6d79 74696d65 72007374 64696e00  ._mytimer.stdin.
 03a0 5f666c61 67733200 5f6d6f64 65005f49  _flags2._mode._I
 03b0 4f5f7265 61645f62 61736500 74696d65  O_read_base.time
 03c0 73706563 005f756e 75736564 32005f49  spec._unused2._I
 03d0 4f5f7361 76655f62 61736500 5f5f7374  O_save_base.__st
 03e0 61636b5f 63686b5f 6661696c 005f6172  ack_chk_fail._ar
 03f0 67756d65 6e74005f 73627566 005f494f  gument._sbuf._IO
 0400 5f726561 645f7074 72004473 74524742  _read_ptr.DstRGB
 0410 00737464 6f757400 5f494f5f 6c6f636b  .stdout._IO_lock
 0420 5f740069 6e697400                    _t.init.        
Contents of section .comment:
 0000 00474343 3a202855 62756e74 752f4c69  .GCC: (Ubuntu/Li
 0010 6e61726f 20352e34 2e302d36 7562756e  naro 5.4.0-6ubun
 0020 7475317e 31362e30 342e3429 20352e34  tu1~16.04.4) 5.4
 0030 2e302032 30313630 36303900           .0 20160609.    
Contents of section .debug_frame:
 0000 0c000000 ffffffff 01000478 1e0c1f00  ...........x....
 0010 44000000 00000000 00000000 00000000  D...............
 0020 b8010000 00000000 410ee002 9d2c9e2b  ........A....,.+
 0030 430d1d41 932a9429 46972698 25439528  C..A.*.)F.&.%C.(
 0040 9627025e 0adeddd7 d8d5d6d3 d40c1f00  .'.^............
 0050 410b0000 00000000 34000000 00000000  A.......4.......
 0060 00000000 00000000 b0000000 00000000  ................
 0070 410e609d 0c9e0b43 0d1d4195 0847930a  A.`....C..A..G..
 0080 94095e0a deddd5d3 d40c1f00 410b0000  ..^.........A...

Disassembly of section .text:

0000000000000000 <loop4_v1>:
   0:	a9aa7bfd 	stp	x29, x30, [sp,#-352]!
   4:	d2802022 	mov	x2, #0x101                 	// #257
   8:	52800001 	mov	w1, #0x0                   	// #0
   c:	910003fd 	mov	x29, sp
  10:	a90153f3 	stp	x19, x20, [sp,#16]
  14:	90000013 	adrp	x19, 0 <__stack_chk_guard>
  18:	91000263 	add	x3, x19, #0x0
  1c:	a90363f7 	stp	x23, x24, [sp,#48]
  20:	f9400064 	ldr	x4, [x3]
  24:	f900afa4 	str	x4, [x29,#344]
  28:	d2800004 	mov	x4, #0x0                   	// #0
  2c:	aa0003f8 	mov	x24, x0
  30:	910143a0 	add	x0, x29, #0x50
  34:	a9025bf5 	stp	x21, x22, [sp,#32]
  38:	a940d317 	ldp	x23, x20, [x24,#8]
  3c:	79400716 	ldrh	w22, [x24,#2]
  40:	79400315 	ldrh	w21, [x24]
  44:	94000000 	bl	0 <memset>
  48:	aa1803e1 	mov	x1, x24
  4c:	910143a0 	add	x0, x29, #0x50
  50:	94000000 	bl	0 <get_eq_gamma>
  54:	5284e200 	mov	w0, #0x2710                	// #10000
  58:	94000000 	bl	0 <usleep>
  5c:	910103a0 	add	x0, x29, #0x40
  60:	94000000 	bl	0 <mytimer_start>
  64:	34000856 	cbz	w22, 16c <loop4_v1+0x16c>
  68:	510006a7 	sub	w7, w21, #0x1
  6c:	52800061 	mov	w1, #0x3                   	// #3
  70:	d2800060 	mov	x0, #0x3                   	// #3
  74:	0b1506a8 	add	w8, w21, w21, lsl #1
  78:	52800006 	mov	w6, #0x0                   	// #0
  7c:	52800005 	mov	w5, #0x0                   	// #0
  80:	9ba100e7 	umaddl	x7, w7, w1, x0
  84:	340006d5 	cbz	w21, 15c <loop4_v1+0x15c>
  88:	93407cc1 	sxtw	x1, w6
  8c:	8b0100e4 	add	x4, x7, x1
  90:	8b010283 	add	x3, x20, x1
  94:	8b040284 	add	x4, x20, x4
  98:	8b0106e1 	add	x1, x23, x1, lsl #1
  9c:	79400822 	ldrh	w2, [x1,#4]
  a0:	7940042b 	ldrh	w11, [x1,#2]
  a4:	7940002a 	ldrh	w10, [x1]
  a8:	531c6c40 	lsl	w0, w2, #4
  ac:	4b020000 	sub	w0, w0, w2
  b0:	531c6d69 	lsl	w9, w11, #4
  b4:	531c6d42 	lsl	w2, w10, #4
  b8:	4b0b0129 	sub	w9, w9, w11
  bc:	4b0a0042 	sub	w2, w2, w10
  c0:	d13a83ab 	sub	x11, x29, #0xea0
  c4:	531d7000 	lsl	w0, w0, #3
  c8:	130f7c0a 	asr	w10, w0, #15
  cc:	13047d29 	asr	w9, w9, #4
  d0:	13047c42 	asr	w2, w2, #4
  d4:	d3475800 	ubfx	x0, x0, #7, #16
  d8:	8b2ac16a 	add	x10, x11, w10, sxtw
  dc:	79000429 	strh	w9, [x1,#2]
  e0:	79000820 	strh	w0, [x1,#4]
  e4:	53001c00 	uxtb	w0, w0
  e8:	79000022 	strh	w2, [x1]
  ec:	397bc149 	ldrb	w9, [x10,#3824]
  f0:	397bc542 	ldrb	w2, [x10,#3825]
  f4:	4b090042 	sub	w2, w2, w9
  f8:	1b007c40 	mul	w0, w2, w0
  fc:	0b802120 	add	w0, w9, w0, asr #8
 100:	39000860 	strb	w0, [x3,#2]
 104:	79400420 	ldrh	w0, [x1,#2]
 108:	d3483c09 	ubfx	x9, x0, #8, #8
 10c:	8b090169 	add	x9, x11, x9
 110:	53001c02 	uxtb	w2, w0
 114:	397bc12a 	ldrb	w10, [x9,#3824]
 118:	397bc520 	ldrb	w0, [x9,#3825]
 11c:	4b0a0000 	sub	w0, w0, w10
 120:	1b027c00 	mul	w0, w0, w2
 124:	0b802140 	add	w0, w10, w0, asr #8
 128:	39000460 	strb	w0, [x3,#1]
 12c:	78406420 	ldrh	w0, [x1],#6
 130:	d3483c09 	ubfx	x9, x0, #8, #8
 134:	8b090169 	add	x9, x11, x9
 138:	53001c02 	uxtb	w2, w0
 13c:	397bc12a 	ldrb	w10, [x9,#3824]
 140:	397bc520 	ldrb	w0, [x9,#3825]
 144:	4b0a0000 	sub	w0, w0, w10
 148:	1b027c00 	mul	w0, w0, w2
 14c:	0b802140 	add	w0, w10, w0, asr #8
 150:	38003460 	strb	w0, [x3],#3
 154:	eb04007f 	cmp	x3, x4
 158:	54fffa21 	b.ne	9c <loop4_v1+0x9c>
 15c:	110004a5 	add	w5, w5, #0x1
 160:	0b0800c6 	add	w6, w6, w8
 164:	6b1600bf 	cmp	w5, w22
 168:	54fff8e1 	b.ne	84 <loop4_v1+0x84>
 16c:	90000001 	adrp	x1, 0 <loop4_v1>
 170:	910103a0 	add	x0, x29, #0x40
 174:	91000021 	add	x1, x1, #0x0
 178:	91000273 	add	x19, x19, #0x0
 17c:	94000000 	bl	0 <mytimer_print_elapsed>
 180:	5284e200 	mov	w0, #0x2710                	// #10000
 184:	94000000 	bl	0 <usleep>
 188:	aa1803e0 	mov	x0, x24
 18c:	94000000 	bl	0 <do_useless>
 190:	f940afa2 	ldr	x2, [x29,#344]
 194:	f9400261 	ldr	x1, [x19]
 198:	ca010041 	eor	x1, x2, x1
 19c:	b50000c1 	cbnz	x1, 1b4 <loop4_v1+0x1b4>
 1a0:	a94153f3 	ldp	x19, x20, [sp,#16]
 1a4:	a9425bf5 	ldp	x21, x22, [sp,#32]
 1a8:	a94363f7 	ldp	x23, x24, [sp,#48]
 1ac:	a8d67bfd 	ldp	x29, x30, [sp],#352
 1b0:	d65f03c0 	ret
 1b4:	94000000 	bl	0 <__stack_chk_fail>

Disassembly of section .text.startup:

0000000000000000 <main>:
   0:	a9ba7bfd 	stp	x29, x30, [sp,#-96]!
   4:	5280a002 	mov	w2, #0x500                 	// #1280
   8:	52805a01 	mov	w1, #0x2d0                 	// #720
   c:	910003fd 	mov	x29, sp
  10:	f90013f5 	str	x21, [sp,#32]
  14:	90000015 	adrp	x21, 0 <__stack_chk_guard>
  18:	910002a3 	add	x3, x21, #0x0
  1c:	910103a0 	add	x0, x29, #0x40
  20:	f9400064 	ldr	x4, [x3]
  24:	f9002fa4 	str	x4, [x29,#88]
  28:	d2800004 	mov	x4, #0x0                   	// #0
  2c:	a90153f3 	stp	x19, x20, [sp,#16]
  30:	d292cff4 	mov	x20, #0x967f                	// #38527
  34:	90000013 	adrp	x19, 0 <main>
  38:	f2a01314 	movk	x20, #0x98, lsl #16
  3c:	91000273 	add	x19, x19, #0x0
  40:	94000000 	bl	0 <init>
  44:	9100c3a0 	add	x0, x29, #0x30
  48:	94000000 	bl	0 <mytimer_start>
  4c:	910103a0 	add	x0, x29, #0x40
  50:	94000000 	bl	0 <main>
  54:	53001c02 	uxtb	w2, w0
  58:	aa1303e1 	mov	x1, x19
  5c:	52800020 	mov	w0, #0x1                   	// #1
  60:	94000000 	bl	0 <__printf_chk>
  64:	910103a0 	add	x0, x29, #0x40
  68:	94000000 	bl	0 <update_SrcRGB>
  6c:	9100c3a0 	add	x0, x29, #0x30
  70:	94000000 	bl	0 <mytimer_elapsed>
  74:	eb14001f 	cmp	x0, x20
  78:	54fffead 	b.le	4c <main+0x4c>
  7c:	910103a0 	add	x0, x29, #0x40
  80:	910002b5 	add	x21, x21, #0x0
  84:	94000000 	bl	0 <destroy>
  88:	f9402fa0 	ldr	x0, [x29,#88]
  8c:	f94002a1 	ldr	x1, [x21]
  90:	ca010001 	eor	x1, x0, x1
  94:	52800000 	mov	w0, #0x0                   	// #0
  98:	b50000a1 	cbnz	x1, ac <main+0xac>
  9c:	a94153f3 	ldp	x19, x20, [sp,#16]
  a0:	f94013f5 	ldr	x21, [sp,#32]
  a4:	a8c67bfd 	ldp	x29, x30, [sp],#96
  a8:	d65f03c0 	ret
  ac:	94000000 	bl	0 <__stack_chk_fail>
