
v2.o:     file format elf64-littleaarch64

Contents of section .text:
 0000 fd7baaa9 222080d2 01008052 fd030091  .{.." .....R....
 0010 f55b02a9 f50300aa a0630191 f35301a9  .[.......c...S..
 0020 f71b00f9 b4064079 b70640f9 b60a40f9  ......@y..@...@.
 0030 b3024079 00000094 e10315aa a0630191  ..@y.........c..
 0040 00000094 00e28452 00000094 a0230191  .......R.....#..
 0050 00000094 f4070034 68761e53 69060051  .......4hv.Si..Q
 0060 61008052 600080d2 0801134b e60317aa  a..R`......K....
 0070 2901a19b e50316aa 07008052 0a7d4093  )..........R.}@.
 0080 f3050034 2401058b e20305aa e30306aa  ...4$...........
 0090 6e084079 6d044079 6c644078 c16d1c53  n.@ym.@yld@x.m.S
 00a0 21000e4b a06d1c53 8b6d1c53 21701d53  !..K.m.S.m.S!p.S
 00b0 6b010c4b 2f7c0f13 6b711d53 00000d4b  k..K/|..kq.S...K
 00c0 6c3947d3 6d7d0f13 ab833ad1 00701d53  l9G.m}....:..p.S
 00d0 6bc12f8b 0e7c0f13 af833ad1 213847d3  k./..|....:.!8G.
 00e0 eec12e8b edc12d8b 6fe17b39 003847d3  ......-.o.{9.8G.
 00f0 6be57b39 6b010f4b 617d011b e121810b  k.{9k..Ka}...!..
 0100 41080039 cbe17b39 c1e57b39 21000b4b  A..9..{9..{9!..K
 0110 217c001b 6121810b 41040039 abe17b39  !|..a!..A..9..{9
 0120 a1e57b39 21000b4b 207c0c1b 6021800b  ..{9!..K |..`!..
 0130 40340038 9f0002eb c1faff54 e7040011  @4.8.......T....
 0140 c6c4288b ff00146b a5000a8b a1f9ff54  ..(....k.......T
 0150 01000090 a0230191 21000091 00000094  .....#..!.......
 0160 00e28452 00000094 e00315aa 00000094  ...R............
 0170 f71b40f9 f35341a9 f55b42a9 fd7bd6a8  ..@..SA..[B..{..
 0180 c0035fd6                             .._.            
Contents of section .text.startup:
 0000 fd7bbba9 02a08052 015a8052 fd030091  .{.....R.Z.R....
 0010 a0e30091 f35301a9 00000094 f4cf92d2  .....S..........
 0020 13000090 a0a30091 1413a0f2 73020091  ............s...
 0030 00000094 a0e30091 00000094 011c0053  ...............S
 0040 e00313aa 00000094 a0e30091 00000094  ................
 0050 a0a30091 00000094 1f0014eb cdfeff54  ...............T
 0060 a0e30091 00000094 00008052 f35341a9  ...........R.SA.
 0070 fd7bc5a8 c0035fd6                    .{...._.        
Contents of section .rodata.str1.8:
 0000 6c6f6f70 20696e20 76320000 00000000  loop in v2......
 0010 2530780a 00000000                    %0x.....        
Contents of section .debug_info:
 0000 cd080000 04000000 00000801 00000000  ................
 0010 01000000 00000000 00000000 00000000  ................
 0020 00000000 00000000 00020000 000002d4  ................
 0030 34000000 03080700 00000003 01080000  4...............
 0040 00000302 07000000 00030407 00000000  ................
 0050 03010600 00000003 02050000 00000404  ................
 0060 05696e74 00030805 00000000 02000000  .int............
 0070 00038365 00000002 00000000 03846500  ...e..........e.
 0080 00000308 07000000 00020000 0000038b  ................
 0090 65000000 02000000 00038c49 00000005  e..........I....
 00a0 08020000 000003af 65000000 0608b200  ........e.......
 00b0 00000301 08000000 00070000 0000d804  ................
 00c0 f5390200 00080000 000004f6 5e000000  .9..........^...
 00d0 00080000 000004fb ac000000 08080000  ................
 00e0 000004fc ac000000 10080000 000004fd  ................
 00f0 ac000000 18080000 000004fe ac000000  ................
 0100 20080000 000004ff ac000000 28090000   ...........(...
 0110 00000400 01ac0000 00300900 00000004  .........0......
 0120 0101ac00 00003809 00000000 040201ac  ......8.........
 0130 00000040 09000000 00040401 ac000000  ...@............
 0140 48090000 00000405 01ac0000 00500900  H............P..
 0150 00000004 0601ac00 00005809 00000000  ..........X.....
 0160 04080171 02000060 09000000 00040a01  ...q...`........
 0170 77020000 68090000 0000040c 015e0000  w...h........^..
 0180 00700900 00000004 10015e00 00007409  .p........^...t.
 0190 00000000 0412016c 00000078 09000000  .......l...x....
 01a0 00041601 42000000 80090000 00000417  ....B...........
 01b0 01500000 00820900 00000004 18017d02  .P............}.
 01c0 00008309 00000000 041c018d 02000088  ................
 01d0 09000000 00042501 77000000 90090000  ......%.w.......
 01e0 0000042e 019f0000 00980900 00000004  ................
 01f0 2f019f00 0000a009 00000000 0430019f  /............0..
 0200 000000a8 09000000 00043101 9f000000  ..........1.....
 0210 b0090000 00000432 01290000 00b80900  .......2.)......
 0220 00000004 34015e00 0000c009 00000000  ....4.^.........
 0230 04360193 020000c4 000a0000 0000049a  .6..............
 0240 07000000 001804a0 71020000 08000000  ........q.......
 0250 0004a171 02000000 08000000 0004a277  ...q...........w
 0260 02000008 08000000 0004a65e 00000010  ...........^....
 0270 00060840 02000006 08b90000 000bb200  ...@............
 0280 00008d02 00000c82 00000000 00060839  ...............9
 0290 0200000b b2000000 a3020000 0c820000  ................
 02a0 00130006 08a90200 000db200 00000200  ................
 02b0 00000005 303b0000 00020000 00000531  ....0;.........1
 02c0 42000000 07000000 0018060e 01030000  B...............
 02d0 08000000 00060fb9 02000000 08000000  ................
 02e0 000610b9 02000002 08000000 00061101  ................
 02f0 03000008 08000000 00061207 03000010  ................
 0300 000608b9 02000006 08ae0200 00020000  ................
 0310 00000613 c4020000 07000000 00100778  ...............x
 0320 3d030000 08000000 00077a89 00000000  =.........z.....
 0330 08000000 00077ba1 00000008 00070000  ......{.........
 0340 00001008 0a560300 00080000 0000080b  .....V..........
 0350 18030000 00000200 00000008 0c3d0300  .............=..
 0360 000e0000 00000152 ae020000 01a90300  .......R........
 0370 000f0000 00000152 5e000000 0f000000  .......R^.......
 0380 00015207 0300000f 00000000 01525e00  ..R..........R^.
 0390 00001069 64780001 545e0000 00106f75  ...idx..T^....ou
 03a0 74000155 ae020000 00110000 00000120  t..U........... 
 03b0 ae020000 00000000 00000000 84010000  ................
 03c0 00000000 019c7606 00001261 72670001  ......v....arg..
 03d0 20760600 00000000 00130000 00000122   v............."
 03e0 01030000 00000000 13000000 00012307  ..............#.
 03f0 03000000 00000013 00000000 0124b902  .............$..
 0400 00000000 00001300 00000001 25b90200  ............%...
 0410 00000000 00140000 00000126 ae020000  ...........&....
 0420 08150000 00000127 7c060000 0391f87d  .......'|......}
 0430 15000000 00012956 03000003 91e87d16  ......)V......}.
 0440 00000000 00000000 fc000000 00000000  ................
 0450 ac050000 17690001 325e0000 00000000  .....i..2^......
 0460 00180000 00000000 0000bc00 00000000  ................
 0470 0000176a 0001345e 00000000 00000018  ...j..4^........
 0480 00000000 00000000 a4000000 00000000  ................
 0490 17720001 36b90200 00000000 00176700  .r..6.........g.
 04a0 0136b902 00000000 00001762 000136b9  .6.........b..6.
 04b0 02000000 00000013 00000000 01370703  .............7..
 04c0 00000000 00001300 00000001 37070300  ............7...
 04d0 00000000 00130000 00000137 07030000  ...........7....
 04e0 00000000 19610300 00000000 00000000  .....a..........
 04f0 00000000 0001452f 0500001a 87030000  ......E/........
 0500 00000000 1a7c0300 00000000 001a7103  .....|........q.
 0510 00000000 00001b00 0000001c 92030000  ................
 0520 00000000 1c9d0300 00000000 00000019  ................
 0530 61030000 00000000 00000000 00000000  a...............
 0540 01476e05 00001a87 03000000 0000001a  .Gn.............
 0550 7c030000 00000000 1d710300 001b0000  |........q......
 0560 00001e92 0300001e 9d030000 00001f61  ...............a
 0570 03000000 00000000 00000000 00000001  ................
 0580 461a8703 00000000 00001a7c 03000000  F..........|....
 0590 0000001d 71030000 1b000000 001e9203  ....q...........
 05a0 00001e9d 03000000 00000000 20000000  ............ ...
 05b0 00000000 00e00700 00d10500 00210150  .............!.P
 05c0 038f8801 21015101 30210152 030a0101  ....!.Q.0!.R....
 05d0 00200000 00000000 0000fd07 0000f005  . ..............
 05e0 00002101 50038f88 01210151 02850000  ..!.P....!.Q....
 05f0 20000000 00000000 00130800 00090600   ...............
 0600 00210150 030a1027 00200000 00000000  .!.P...'. ......
 0610 00002908 00002206 00002101 50038ff8  ..)..."...!.P...
 0620 00002000 00000000 00000040 08000048  .. ........@...H
 0630 06000021 0150038f f8002101 51090300  ...!.P....!.Q...
 0640 00000000 00000000 20000000 00000000  ........ .......
 0650 00130800 00610600 00210150 030a1027  .....a...!.P...'
 0660 00220000 00000000 00005608 00002101  ."........V...!.
 0670 50028500 00000608 0d030000 0bae0200  P...............
 0680 008d0600 00238200 00000001 00110000  .....#..........
 0690 00000108 5e000000 00000000 00000000  ....^...........
 06a0 78000000 00000000 019cbd07 00002400  x.............$.
 06b0 00000001 085e0000 00000000 00240000  .....^.......$..
 06c0 00000108 bd070000 00000000 25617267  ............%arg
 06d0 00010a0d 03000002 91681500 00000001  .........h......
 06e0 0b560300 00029158 13000000 00010dc3  .V.....X........
 06f0 07000000 00000026 00000000 010fc307  .......&........
 0700 00008096 98002000 00000000 0000006b  ...... ........k
 0710 0800002d 07000021 0150038f c8002101  ...-...!.P....!.
 0720 51030ad0 02210152 030a0005 00200000  Q....!.R..... ..
 0730 00000000 00002908 00004507 00002101  ......)...E...!.
 0740 50028f38 00200000 00000000 0000a903  P..8. ..........
 0750 00005e07 00002101 50038fc8 00002000  ..^...!.P..... .
 0760 00000000 00000086 08000076 07000021  ...........v...!
 0770 01500283 00002000 00000000 0000009d  .P.... .........
 0780 0800008f 07000021 0150038f c8000020  .......!.P..... 
 0790 00000000 00000000 ae080000 a7070000  ................
 07a0 21015002 8f380022 00000000 00000000  !.P..8."........
 07b0 c3080000 21015003 8fc80000 000608ac  ....!.P.........
 07c0 00000003 08050000 00002700 00000009  ..........'.....
 07d0 a8770200 00270000 000009a9 77020000  .w...'......w...
 07e0 28000000 009f0000 00fd0700 00299f00  (............)..
 07f0 0000295e 00000029 82000000 002a0000  ..)^...).....*..
 0800 0000061d 13080000 29070300 00297606  ........)....)v.
 0810 0000002b 00000000 0acc015e 00000029  ...+.......^...)
 0820 08000029 94000000 002a0000 0000080e  ...).....*......
 0830 3a080000 293a0800 00000608 56030000  :...):......V...
 0840 2a000000 00081356 08000029 3a080000  *......V...):...
 0850 29a30200 00002c00 00000006 1bae0200  ).....,.........
 0860 006b0800 00297606 0000002a 00000000  .k...)v....*....
 0870 06188608 00002976 06000029 5e000000  ......)v...)^...
 0880 295e0000 00002b00 00000009 6a015e00  )^....+.....j.^.
 0890 00009d08 000029a3 0200002d 002a0000  ......)....-.*..
 08a0 00000619 ae080000 29760600 00002c00  ........)v....,.
 08b0 00000008 11c30700 00c30800 00293a08  .............):.
 08c0 0000002e 00000000 061a2976 06000000  ..........)v....
 08d0 00                                   .               
Contents of section .debug_abbrev:
 0000 01110125 0e130b03 0e1b0e55 17110110  ...%.......U....
 0010 17000002 1600030e 3a0b3b0b 49130000  ........:.;.I...
 0020 0324000b 0b3e0b03 0e000004 24000b0b  .$...>......$...
 0030 3e0b0308 0000050f 000b0b00 00060f00  >...............
 0040 0b0b4913 00000713 01030e0b 0b3a0b3b  ..I..........:.;
 0050 0b011300 00080d00 030e3a0b 3b0b4913  ..........:.;.I.
 0060 380b0000 090d0003 0e3a0b3b 05491338  8........:.;.I.8
 0070 0b00000a 1600030e 3a0b3b0b 00000b01  ........:.;.....
 0080 01491301 1300000c 21004913 2f0b0000  .I......!.I./...
 0090 0d260049 1300000e 2e01030e 3a0b3b0b  .&.I........:.;.
 00a0 27194913 200b0113 00000f05 00030e3a  '.I. ..........:
 00b0 0b3b0b49 13000010 34000308 3a0b3b0b  .;.I....4...:.;.
 00c0 49130000 112e013f 19030e3a 0b3b0b27  I......?...:.;.'
 00d0 19491311 01120740 18974219 01130000  .I.....@..B.....
 00e0 12050003 083a0b3b 0b491302 17000013  .....:.;.I......
 00f0 3400030e 3a0b3b0b 49130217 00001434  4...:.;.I......4
 0100 00030e3a 0b3b0b49 131c0b00 00153400  ...:.;.I......4.
 0110 030e3a0b 3b0b4913 02180000 160b0111  ..:.;.I.........
 0120 01120701 13000017 34000308 3a0b3b0b  ........4...:.;.
 0130 49130217 0000180b 01110112 07000019  I...............
 0140 1d013113 52015517 580b590b 01130000  ..1.R.U.X.Y.....
 0150 1a050031 13021700 001b0b01 55170000  ...1........U...
 0160 1c340031 13021700 001d0500 31130000  .4.1........1...
 0170 1e340031 1300001f 1d013113 52015517  .4.1......1.R.U.
 0180 580b590b 00002089 82010111 01311301  X.Y... ......1..
 0190 13000021 8a820100 02189142 18000022  ...!.......B..."
 01a0 89820101 11013113 00002321 0049132f  ......1...#!.I./
 01b0 05000024 0500030e 3a0b3b0b 49130217  ...$....:.;.I...
 01c0 00002534 0003083a 0b3b0b49 13021800  ..%4...:.;.I....
 01d0 00263400 030e3a0b 3b0b4913 1c060000  .&4...:.;.I.....
 01e0 27340003 0e3a0b3b 0b49133f 193c1900  '4...:.;.I.?.<..
 01f0 00282e01 3f19030e 27194913 34193c19  .(..?...'.I.4.<.
 0200 01130000 29050049 1300002a 2e013f19  ....)..I...*..?.
 0210 030e3a0b 3b0b2719 3c190113 00002b2e  ..:.;.'.<.....+.
 0220 013f1903 0e3a0b3b 05271949 133c1901  .?...:.;.'.I.<..
 0230 1300002c 2e013f19 030e3a0b 3b0b2719  ...,..?...:.;.'.
 0240 49133c19 01130000 2d180000 002e2e01  I.<.....-.......
 0250 3f19030e 3a0b3b0b 27193c19 000000    ?...:.;.'.<.... 
Contents of section .debug_loc:
 0000 00000000 00000000 00000000 00000000  ................
 0010 01005000 00000000 00000000 00000000  ..P.............
 0020 00000001 00650000 00000000 00000000  .....e..........
 0030 00000000 00000400 f301509f 00000000  ..........P.....
 0040 00000000 00000000 00000000 00000000  ................
 0050 00000000 00000000 00000000 01006700  ..............g.
 0060 00000000 00000000 00000000 00000000  ................
 0070 00000000 00000000 00000000 00000001  ................
 0080 00660000 00000000 00000000 00000000  .f..............
 0090 00000000 00000000 00000000 00000000  ................
 00a0 00000100 64000000 00000000 00000000  ....d...........
 00b0 00000000 00000000 00000000 00000000  ................
 00c0 00000000 00010063 00000000 00000000  .......c........
 00d0 00000000 00000000 00000000 00000000  ................
 00e0 00000000 00000000 0200309f 00000000  ..........0.....
 00f0 00000000 00000000 00000000 01005700  ..............W.
 0100 00000000 00000000 00000000 00000000  ................
 0110 00000000 00000000 00000000 00000002  ................
 0120 00309f00 00000000 00000000 00000000  .0..............
 0130 00000000 00000000 00000000 00000000  ................
 0140 00000002 00730400 00000000 00000000  .....s..........
 0150 00000000 00000002 00737e00 00000000  .........s~.....
 0160 00000000 00000000 00000005 00710037  .............q.7
 0170 269f0000 00000000 00000000 00000000  &...............
 0180 00001800 737e9402 0affff1a 3424737e  ....s~......4$s~
 0190 94020aff ff1a1c33 2437269f 00000000  .......3$7&.....
 01a0 00000000 00000000 00000000 00000000  ................
 01b0 00000000 00000000 00000000 02007302  ..............s.
 01c0 00000000 00000000 00000000 00000000  ................
 01d0 0200737c 00000000 00000000 00000000  ..s|............
 01e0 00000000 05007000 37269f00 00000000  ......p.7&......
 01f0 00000000 00000000 00000018 00737c94  .............s|.
 0200 020affff 1a342473 7c94020a ffff1a1c  .....4$s|.......
 0210 33243726 9f000000 00000000 00000000  3$7&............
 0220 00000000 00000000 00000000 00000000  ................
 0230 00000000 00020073 00000000 00000000  .......s........
 0240 00000000 00000000 00020073 7a000000  ...........sz...
 0250 00000000 00000000 00000000 00000000  ................
 0260 00000000 00000000 00000000 00030072  ...............r
 0270 029f0000 00000000 00000000 00000000  ................
 0280 00000300 727f9f00 00000000 00000000  ....r...........
 0290 00000000 00000000 00000000 00000000  ................
 02a0 00000000 00000003 0072019f 00000000  .........r......
 02b0 00000000 00000000 00000000 0300727e  ..............r~
 02c0 9f000000 00000000 00000000 00000000  ................
 02d0 00000000 00000000 00000000 00000000  ................
 02e0 00010052 00000000 00000000 00000000  ...R............
 02f0 00000000 0300727d 9f000000 00000000  ......r}........
 0300 00000000 00000000 00000000 00000000  ................
 0310 00000000 00000000 00020038 9f000000  ...........8....
 0320 00000000 00000000 00000000 00000000  ................
 0330 00000000 00000000 00000000 0004008f  ................
 0340 88019f00 00000000 00000000 00000000  ................
 0350 00000000 00000000 00000000 00000000  ................
 0360 00000005 00710037 269f0000 00000000  .....q.7&.......
 0370 00000000 00000000 00001800 737e9402  ............s~..
 0380 0affff1a 3424737e 94020aff ff1a1c33  ....4$s~.......3
 0390 2437269f 00000000 00000000 00000000  $7&.............
 03a0 00000000 00000000 00000000 00000000  ................
 03b0 00000000 07007100 37263826 9f000000  ......q.7&8&....
 03c0 00000000 00000000 00000000 001a0073  ...............s
 03d0 7e94020a ffff1a34 24737e94 020affff  ~......4$s~.....
 03e0 1a1c3324 37263826 9f000000 00000000  ..3$7&8&........
 03f0 00000000 00000000 00000000 00000000  ................
 0400 00000000 00000000 004f0073 7e94020a  .........O.s~...
 0410 ffff1a34 24737e94 020affff 1a1c3324  ...4$s~.......3$
 0420 372608ff 1a737e94 020affff 1a342473  7&...s~......4$s
 0430 7e94020a ffff1a1c 33243f26 08202408  ~.......3$?&. $.
 0440 20268f00 22238901 940108ff 1a7f0008   &.."#..........
 0450 ff1a1c1e 38267f00 229f0000 00000000  ....8&..".......
 0460 00000000 00000000 00000000 00000000  ................
 0470 00000000 00000000 00000200 389f0000  ............8...
 0480 00000000 00000000 00000000 00000000  ................
 0490 00000000 00000000 00000000 00000400  ................
 04a0 8f88019f 00000000 00000000 00000000  ................
 04b0 00000000 00000000 00000000 00000000  ................
 04c0 00000000 0200389f 00000000 00000000  ......8.........
 04d0 00000000 00000000 00000000 00000000  ................
 04e0 00000000 00000000 04008f88 019f0000  ................
 04f0 00000000 00000000 00000000 00000000  ................
 0500 00000000 00000000 00000000 00000100  ................
 0510 50000000 00000000 00000000 00000000  P...............
 0520 000400f3 01509f00 00000000 00000000  .....P..........
 0530 00000000 00000000 00000000 00000000  ................
 0540 00000000 00000001 00510000 00000000  .........Q......
 0550 00000000 00000000 00000400 f301519f  ..............Q.
 0560 00000000 00000000 00000000 00000000  ................
 0570 00000000 00000000 00000000 00000000  ................
 0580 0200309f 00000000 00000000 00000000  ..0.............
 0590 00000000 01005000 00000000 00000000  ......P.........
 05a0 00000000 000000                      .......         
Contents of section .debug_aranges:
 0000 3c000000 02000000 00000800 00000000  <...............
 0010 00000000 00000000 84010000 00000000  ................
 0020 00000000 00000000 78000000 00000000  ........x.......
 0030 00000000 00000000 00000000 00000000  ................
Contents of section .debug_ranges:
 0000 00000000 00000000 00000000 00000000  ................
 0010 00000000 00000000 00000000 00000000  ................
 0020 00000000 00000000 00000000 00000000  ................
 0030 00000000 00000000 00000000 00000000  ................
 0040 00000000 00000000 00000000 00000000  ................
 0050 00000000 00000000 00000000 00000000  ................
 0060 00000000 00000000 00000000 00000000  ................
 0070 00000000 00000000 00000000 00000000  ................
 0080 00000000 00000000 00000000 00000000  ................
 0090 00000000 00000000 00000000 00000000  ................
 00a0 00000000 00000000 00000000 00000000  ................
 00b0 00000000 00000000 00000000 00000000  ................
 00c0 00000000 00000000 00000000 00000000  ................
 00d0 00000000 00000000 00000000 00000000  ................
 00e0 00000000 00000000 00000000 00000000  ................
 00f0 00000000 00000000 00000000 00000000  ................
 0100 00000000 00000000 00000000 00000000  ................
 0110 00000000 00000000 00000000 00000000  ................
 0120 00000000 00000000 00000000 00000000  ................
Contents of section .debug_line:
 0000 c6020000 0200da01 00000401 fb0e0d00  ................
 0010 01010101 00000001 0000012f 6f70742f  .........../opt/
 0020 746f6f6c 63686169 6e732f4e 58502f53  toolchains/NXP/S
 0030 33324453 5f566973 696f6e5f 76312e30  32DS_Vision_v1.0
 0040 2f43726f 73735f54 6f6f6c73 2f676363  /Cross_Tools/gcc
 0050 2d616172 63683634 2d6c696e 75782d67  -aarch64-linux-g
 0060 6e752d34 5f392f6c 69622f67 63632f61  nu-4_9/lib/gcc/a
 0070 61726368 36342d6c 696e7578 2d676e75  arch64-linux-gnu
 0080 2f342e39 2e332f69 6e636c75 6465002f  /4.9.3/include./
 0090 6f70742f 746f6f6c 63686169 6e732f4e  opt/toolchains/N
 00a0 58502f53 33324453 5f566973 696f6e5f  XP/S32DS_Vision_
 00b0 76312e30 2f43726f 73735f54 6f6f6c73  v1.0/Cross_Tools
 00c0 2f676363 2d616172 63683634 2d6c696e  /gcc-aarch64-lin
 00d0 75782d67 6e752d34 5f392f61 61726368  ux-gnu-4_9/aarch
 00e0 36342d6c 696e7578 2d676e75 2f6c6962  64-linux-gnu/lib
 00f0 632f7573 722f696e 636c7564 652f6269  c/usr/include/bi
 0100 7473002f 6f70742f 746f6f6c 63686169  ts./opt/toolchai
 0110 6e732f4e 58502f53 33324453 5f566973  ns/NXP/S32DS_Vis
 0120 696f6e5f 76312e30 2f43726f 73735f54  ion_v1.0/Cross_T
 0130 6f6f6c73 2f676363 2d616172 63683634  ools/gcc-aarch64
 0140 2d6c696e 75782d67 6e752d34 5f392f61  -linux-gnu-4_9/a
 0150 61726368 36342d6c 696e7578 2d676e75  arch64-linux-gnu
 0160 2f6c6962 632f7573 722f696e 636c7564  /libc/usr/includ
 0170 65000076 322e6300 00000073 74646465  e..v2.c....stdde
 0180 662e6800 01000074 79706573 2e680002  f.h....types.h..
 0190 00006c69 62696f2e 68000300 00737464  ..libio.h....std
 01a0 696e742e 68000300 00636f6d 6d6f6e2e  int.h....common.
 01b0 68000000 0074696d 652e6800 0300006d  h....time.h....m
 01c0 7974696d 65722e68 00000000 73746469  ytimer.h....stdi
 01d0 6f2e6800 03000075 6e697374 642e6800  o.h....unistd.h.
 01e0 03000000 00090200 00000000 00000003  ................
 01f0 20012603 7a2e4203 7a20311e 21222224   .&.z.B.z 1.!""$
 0200 40302f00 020401ae 062e0002 04030636  @0/............6
 0210 00020403 21000204 03210002 04031e00  ....!....!......
 0220 0204032f 00020403 21000204 031e0002  .../....!.......
 0230 04032200 02040303 19200002 04030367  .."...... .....g
 0240 20000204 031f0002 0403031b 20000204   ........... ...
 0250 031f0002 04032100 02040303 65200002  ......!.....e ..
 0260 0403031b 20000204 031f0002 04032100  .... .........!.
 0270 02040303 6d9e0002 04030313 20000204  ....m....... ...
 0280 03036e58 00020403 03122000 02040303  ..nX...... .....
 0290 6f580002 0403036d 202c0318 584d302f  oX.....m ,..XM0/
 02a0 02050001 01000902 00000000 00000000  ................
 02b0 1a280378 2e280378 2028232d 21221d23  .(.x.(.x (#-!".#
 02c0 592f2a35 31020400 0101               Y/*51.....      
Contents of section .debug_str:
 0000 74765f6e 73656300 6d797469 6d657200  tv_nsec.mytimer.
 0010 5f6f6c64 5f6f6666 73657400 70697865  _old_offset.pixe
 0020 6c006765 745f6571 5f67616d 6d61005f  l.get_eq_gamma._
 0030 494f5f46 494c4500 75736c65 65700074  IO_FILE.usleep.t
 0040 765f7365 63005f49 4f5f7361 76655f65  v_sec._IO_save_e
 0050 6e640073 686f7274 20696e74 0073697a  nd.short int.siz
 0060 655f7400 53726352 47420073 697a6574  e_t.SrcRGB.sizet
 0070 79706500 5f6f6666 73657400 756e7469  ype._offset.unti
 0080 6c006d61 696e005f 494f5f77 72697465  l.main._IO_write
 0090 5f707472 005f666c 61677300 5f5f7379  _ptr._flags.__sy
 00a0 7363616c 6c5f736c 6f6e675f 74005f49  scall_slong_t._I
 00b0 4f5f6275 665f6261 73650075 70646174  O_buf_base.updat
 00c0 655f5372 63524742 005f6c6f 636b0076  e_SrcRGB._lock.v
 00d0 322e6300 6d797469 6d65725f 73746172  2.c.mytimer_star
 00e0 74005f6d 61726b65 7273005f 494f5f72  t._markers._IO_r
 00f0 6561645f 656e6400 6c6f6f70 345f7632  ead_end.loop4_v2
 0100 0075696e 74385f74 0074696d 65720064  .uint8_t.timer.d
 0110 75726174 696f6e5f 75730077 69647468  uration_us.width
 0120 006c6f6e 67206c6f 6e672069 6e74006d  .long long int.m
 0130 7974696d 65725f70 72696e74 5f656c61  ytimer_print_ela
 0140 70736564 006d656d 73657400 6c6f6e67  psed.memset.long
 0150 20696e74 00707269 6e746600 64657374   int.printf.dest
 0160 726f7900 5f637572 5f636f6c 756d6e00  roy._cur_column.
 0170 5f706f73 006d7974 696d6572 5f656c61  _pos.mytimer_ela
 0180 70736564 00617267 76005f76 7461626c  psed.argv._vtabl
 0190 655f6f66 66736574 00756e73 69676e65  e_offset.unsigne
 01a0 64206368 61720062 696e5f77 69647468  d char.bin_width
 01b0 00617267 63007369 676e6564 20636861  .argc.signed cha
 01c0 72007044 73745247 4200756e 7369676e  r.pDstRGB.unsign
 01d0 65642069 6e74005f 494f5f6d 61726b65  ed int._IO_marke
 01e0 72005f73 686f7274 62756600 70537263  r._shortbuf.pSrc
 01f0 52474200 41726775 6d656e74 005f5f6f  RGB.Argument.__o
 0200 66663634 5f74005f 5f706164 32005f49  ff64_t.__pad2._I
 0210 4f5f7772 6974655f 62617365 005f5f70  O_write_base.__p
 0220 61643300 646f5f75 73656c65 73730073  ad3.do_useless.s
 0230 74617274 005f494f 5f627566 5f656e64  tart._IO_buf_end
 0240 006f7574 5f62006f 75745f67 00636861  .out_b.out_g.cha
 0250 72007569 6e743136 5f74005f 5f757365  r.uint16_t.__use
 0260 636f6e64 735f7400 65715f67 616d6d61  conds_t.eq_gamma
 0270 005f5f70 61643100 6f75745f 72005f6e  .__pad1.out_r._n
 0280 65787400 5f5f7061 6434005f 5f706164  ext.__pad4.__pad
 0290 35006865 69676874 005f494f 5f626163  5.height._IO_bac
 02a0 6b75705f 62617365 0073686f 72742075  kup_base.short u
 02b0 6e736967 6e656420 696e7400 67616d6d  nsigned int.gamm
 02c0 615f636f 72726563 74696f6e 006c6f6e  a_correction.lon
 02d0 6720756e 7369676e 65642069 6e74002f  g unsigned int./
 02e0 686f6d65 2f6a756e 6865652f 73686172  home/junhee/shar
 02f0 652f4d50 43352e35 2d434e4e 2f64656c  e/MPC5.5-CNN/del
 0300 6574656d 65303100 5f494f5f 77726974  eteme01._IO_writ
 0310 655f656e 64005f5f 74696d65 5f74005f  e_end.__time_t._
 0320 66696c65 6e6f005f 63686169 6e00474e  fileno._chain.GN
 0330 55204320 342e392e 33203230 31353034  U C 4.9.3 201504
 0340 31332028 70726572 656c6561 73652920  13 (prerelease) 
 0350 2d6d6c69 74746c65 2d656e64 69616e20  -mlittle-endian 
 0360 2d6d6162 693d6c70 3634202d 67202d4f  -mabi=lp64 -g -O
 0370 32202d73 74643d67 6e753939 005f5f6f  2 -std=gnu99.__o
 0380 66665f74 005f6d79 74696d65 72007374  ff_t._mytimer.st
 0390 64696e00 5f666c61 67733200 5f6d6f64  din._flags2._mod
 03a0 65005f49 4f5f7265 61645f62 61736500  e._IO_read_base.
 03b0 74696d65 73706563 005f756e 75736564  timespec._unused
 03c0 32005f49 4f5f7361 76655f62 61736500  2._IO_save_base.
 03d0 5f617267 756d656e 74005f73 62756600  _argument._sbuf.
 03e0 5f494f5f 72656164 5f707472 00447374  _IO_read_ptr.Dst
 03f0 52474200 7374646f 7574005f 494f5f6c  RGB.stdout._IO_l
 0400 6f636b5f 7400696e 697400             ock_t.init.     
Contents of section .comment:
 0000 00474343 3a20284c 696e6172 6f204743  .GCC: (Linaro GC
 0010 4320342e 392d3230 31352e30 35292034  C 4.9-2015.05) 4
 0020 2e392e33 20323031 35303431 33202870  .9.3 20150413 (p
 0030 72657265 6c656173 652900             rerelease).     
Contents of section .debug_frame:
 0000 0c000000 ffffffff 01000478 1e0c1f00  ...........x....
 0010 3c000000 00000000 00000000 00000000  <...............
 0020 84010000 00000000 410ee002 9d2c9e2b  ........A....,.+
 0030 430d1d41 95289627 44932a94 29972602  C..A.(.'D.*.).&.
 0040 57deddd7 d5d6d3d4 0c1f0000 00000000  W...............
 0050 2c000000 00000000 00000000 00000000  ,...............
 0060 78000000 00000000 410e509d 0a9e0943  x.......A.P....C
 0070 0d1d4293 08940757 deddd3d4 0c1f0000  ..B....W........

Disassembly of section .text:

0000000000000000 <loop4_v2>:
   0:	a9aa7bfd 	stp	x29, x30, [sp,#-352]!
   4:	d2802022 	mov	x2, #0x101                 	// #257
   8:	52800001 	mov	w1, #0x0                   	// #0
   c:	910003fd 	mov	x29, sp
  10:	a9025bf5 	stp	x21, x22, [sp,#32]
  14:	aa0003f5 	mov	x21, x0
  18:	910163a0 	add	x0, x29, #0x58
  1c:	a90153f3 	stp	x19, x20, [sp,#16]
  20:	f9001bf7 	str	x23, [sp,#48]
  24:	794006b4 	ldrh	w20, [x21,#2]
  28:	f94006b7 	ldr	x23, [x21,#8]
  2c:	f9400ab6 	ldr	x22, [x21,#16]
  30:	794002b3 	ldrh	w19, [x21]
  34:	94000000 	bl	0 <memset>
  38:	aa1503e1 	mov	x1, x21
  3c:	910163a0 	add	x0, x29, #0x58
  40:	94000000 	bl	0 <get_eq_gamma>
  44:	5284e200 	mov	w0, #0x2710                	// #10000
  48:	94000000 	bl	0 <usleep>
  4c:	910123a0 	add	x0, x29, #0x48
  50:	94000000 	bl	0 <mytimer_start>
  54:	340007f4 	cbz	w20, 150 <loop4_v2+0x150>
  58:	531e7668 	lsl	w8, w19, #2
  5c:	51000669 	sub	w9, w19, #0x1
  60:	52800061 	mov	w1, #0x3                   	// #3
  64:	d2800060 	mov	x0, #0x3                   	// #3
  68:	4b130108 	sub	w8, w8, w19
  6c:	aa1703e6 	mov	x6, x23
  70:	9ba10129 	umaddl	x9, w9, w1, x0
  74:	aa1603e5 	mov	x5, x22
  78:	52800007 	mov	w7, #0x0                   	// #0
  7c:	93407d0a 	sxtw	x10, w8
  80:	340005f3 	cbz	w19, 13c <loop4_v2+0x13c>
  84:	8b050124 	add	x4, x9, x5
  88:	aa0503e2 	mov	x2, x5
  8c:	aa0603e3 	mov	x3, x6
  90:	7940086e 	ldrh	w14, [x3,#4]
  94:	7940046d 	ldrh	w13, [x3,#2]
  98:	7840646c 	ldrh	w12, [x3],#6
  9c:	531c6dc1 	lsl	w1, w14, #4
  a0:	4b0e0021 	sub	w1, w1, w14
  a4:	531c6da0 	lsl	w0, w13, #4
  a8:	531c6d8b 	lsl	w11, w12, #4
  ac:	531d7021 	lsl	w1, w1, #3
  b0:	4b0c016b 	sub	w11, w11, w12
  b4:	130f7c2f 	asr	w15, w1, #15
  b8:	531d716b 	lsl	w11, w11, #3
  bc:	4b0d0000 	sub	w0, w0, w13
  c0:	d347396c 	ubfx	x12, x11, #7, #8
  c4:	130f7d6d 	asr	w13, w11, #15
  c8:	d13a83ab 	sub	x11, x29, #0xea0
  cc:	531d7000 	lsl	w0, w0, #3
  d0:	8b2fc16b 	add	x11, x11, w15, sxtw
  d4:	130f7c0e 	asr	w14, w0, #15
  d8:	d13a83af 	sub	x15, x29, #0xea0
  dc:	d3473821 	ubfx	x1, x1, #7, #8
  e0:	8b2ec1ee 	add	x14, x15, w14, sxtw
  e4:	8b2dc1ed 	add	x13, x15, w13, sxtw
  e8:	397be16f 	ldrb	w15, [x11,#3832]
  ec:	d3473800 	ubfx	x0, x0, #7, #8
  f0:	397be56b 	ldrb	w11, [x11,#3833]
  f4:	4b0f016b 	sub	w11, w11, w15
  f8:	1b017d61 	mul	w1, w11, w1
  fc:	0b8121e1 	add	w1, w15, w1, asr #8
 100:	39000841 	strb	w1, [x2,#2]
 104:	397be1cb 	ldrb	w11, [x14,#3832]
 108:	397be5c1 	ldrb	w1, [x14,#3833]
 10c:	4b0b0021 	sub	w1, w1, w11
 110:	1b007c21 	mul	w1, w1, w0
 114:	0b812161 	add	w1, w11, w1, asr #8
 118:	39000441 	strb	w1, [x2,#1]
 11c:	397be1ab 	ldrb	w11, [x13,#3832]
 120:	397be5a1 	ldrb	w1, [x13,#3833]
 124:	4b0b0021 	sub	w1, w1, w11
 128:	1b0c7c20 	mul	w0, w1, w12
 12c:	0b802160 	add	w0, w11, w0, asr #8
 130:	38003440 	strb	w0, [x2],#3
 134:	eb02009f 	cmp	x4, x2
 138:	54fffac1 	b.ne	90 <loop4_v2+0x90>
 13c:	110004e7 	add	w7, w7, #0x1
 140:	8b28c4c6 	add	x6, x6, w8, sxtw #1
 144:	6b1400ff 	cmp	w7, w20
 148:	8b0a00a5 	add	x5, x5, x10
 14c:	54fff9a1 	b.ne	80 <loop4_v2+0x80>
 150:	90000001 	adrp	x1, 0 <loop4_v2>
 154:	910123a0 	add	x0, x29, #0x48
 158:	91000021 	add	x1, x1, #0x0
 15c:	94000000 	bl	0 <mytimer_print_elapsed>
 160:	5284e200 	mov	w0, #0x2710                	// #10000
 164:	94000000 	bl	0 <usleep>
 168:	aa1503e0 	mov	x0, x21
 16c:	94000000 	bl	0 <do_useless>
 170:	f9401bf7 	ldr	x23, [sp,#48]
 174:	a94153f3 	ldp	x19, x20, [sp,#16]
 178:	a9425bf5 	ldp	x21, x22, [sp,#32]
 17c:	a8d67bfd 	ldp	x29, x30, [sp],#352
 180:	d65f03c0 	ret

Disassembly of section .text.startup:

0000000000000000 <main>:
   0:	a9bb7bfd 	stp	x29, x30, [sp,#-80]!
   4:	5280a002 	mov	w2, #0x500                 	// #1280
   8:	52805a01 	mov	w1, #0x2d0                 	// #720
   c:	910003fd 	mov	x29, sp
  10:	9100e3a0 	add	x0, x29, #0x38
  14:	a90153f3 	stp	x19, x20, [sp,#16]
  18:	94000000 	bl	0 <init>
  1c:	d292cff4 	mov	x20, #0x967f                	// #38527
  20:	90000013 	adrp	x19, 0 <main>
  24:	9100a3a0 	add	x0, x29, #0x28
  28:	f2a01314 	movk	x20, #0x98, lsl #16
  2c:	91000273 	add	x19, x19, #0x0
  30:	94000000 	bl	0 <mytimer_start>
  34:	9100e3a0 	add	x0, x29, #0x38
  38:	94000000 	bl	0 <main>
  3c:	53001c01 	uxtb	w1, w0
  40:	aa1303e0 	mov	x0, x19
  44:	94000000 	bl	0 <printf>
  48:	9100e3a0 	add	x0, x29, #0x38
  4c:	94000000 	bl	0 <update_SrcRGB>
  50:	9100a3a0 	add	x0, x29, #0x28
  54:	94000000 	bl	0 <mytimer_elapsed>
  58:	eb14001f 	cmp	x0, x20
  5c:	54fffecd 	b.le	34 <main+0x34>
  60:	9100e3a0 	add	x0, x29, #0x38
  64:	94000000 	bl	0 <destroy>
  68:	52800000 	mov	w0, #0x0                   	// #0
  6c:	a94153f3 	ldp	x19, x20, [sp,#16]
  70:	a8c57bfd 	ldp	x29, x30, [sp],#80
  74:	d65f03c0 	ret
