
v2.o:     file format elf64-littleaarch64

Contents of section .text:
 0000 fd7baaa9 222080d2 01008052 fd030091  .{.." .....R....
 0010 f35301a9 13000090 63020091 f76303a9  .S......c....c..
 0020 640040f9 a4af00f9 040080d2 f80300aa  d.@.............
 0030 a0430191 f55b02a9 17d340a9 16074079  .C...[....@...@y
 0040 15034079 00000094 e10318aa a0430191  ..@y.........C..
 0050 00000094 00e28452 00000094 a0030191  .......R........
 0060 00000094 d6070034 a8060051 61008052  .......4...Qa..R
 0070 600080d2 a906150b 07008052 06008052  `..........R...R
 0080 0801a19b 55060034 e47c4093 0501048b  ....U..4.|@.....
 0090 8302048b 8502058b e406048b 8b084079  ..............@y
 00a0 82044079 8a644078 606d1c53 416c1c53  ..@y.d@x`m.SAl.S
 00b0 00000b4b 2100024b 426d1c53 42000a4b  ...K!..KBm.SB..K
 00c0 00701d53 21701d53 0a7c0f13 2d7c0f13  .p.S!p.S.|..-|..
 00d0 2b3847d3 a1833ad1 42701d53 4c7c0f13  +8G...:.Bp.SL|..
 00e0 003847d3 21c02a8b aa833ad1 4dc12d8b  .8G.!.*...:.M.-.
 00f0 4a3847d3 2ec07b39 22c47b39 a1833ad1  J8G...{9".{9..:.
 0100 42000e4b 2cc02c8b 407c001b c021800b  B..K,.,.@|...!..
 0110 60080039 a0c17b39 a1c57b39 2100004b  `..9..{9..{9!..K
 0120 217c0b1b 0120810b 61040039 81c17b39  !|... ..a..9..{9
 0130 80c57b39 0000014b 007c0a1b 2020800b  ..{9...K.|..  ..
 0140 60340038 bf0003eb a1faff54 c6040011  `4.8.......T....
 0150 e700090b df02066b 61f9ff54 01000090  .......ka..T....
 0160 a0030191 21000091 73020091 00000094  ....!...s.......
 0170 00e28452 00000094 e00318aa 00000094  ...R............
 0180 a2af40f9 610240f9 410001ca c10000b5  ..@.a.@.A.......
 0190 f35341a9 f55b42a9 f76343a9 fd7bd6a8  .SA..[B..cC..{..
 01a0 c0035fd6 00000094                    .._.....        
Contents of section .text.startup:
 0000 fd7bbaa9 02a08052 015a8052 fd030091  .{.....R.Z.R....
 0010 f51300f9 15000090 a3020091 a0030191  ................
 0020 640040f9 a42f00f9 040080d2 f35301a9  d.@../.......S..
 0030 f4cf92d2 13000090 1413a0f2 73020091  ............s...
 0040 00000094 a0c30091 00000094 a0030191  ................
 0050 00000094 021c0053 e10313aa 20008052  .......S.... ..R
 0060 00000094 a0030191 00000094 a0c30091  ................
 0070 00000094 1f0014eb adfeff54 a0030191  ...........T....
 0080 b5020091 00000094 a02f40f9 a10240f9  ........./@...@.
 0090 010001ca 00008052 a10000b5 f35341a9  .......R.....SA.
 00a0 f51340f9 fd7bc6a8 c0035fd6 00000094  ..@..{...._.....
Contents of section .rodata.str1.8:
 0000 6c6f6f70 20696e20 76320000 00000000  loop in v2......
 0010 2530780a 00                          %0x..           
Contents of section .debug_info:
 0000 bc080000 04000000 00000801 00000000  ................
 0010 0c000000 00000000 00000000 00000000  ................
 0020 00000000 00000000 00020000 000003d8  ................
 0030 34000000 03080700 00000003 01080000  4...............
 0040 00000302 07000000 00030407 00000000  ................
 0050 03010600 00000003 02050000 00000404  ................
 0060 05696e74 00030805 00000000 02000000  .int............
 0070 00048365 00000002 00000000 04846500  ...e..........e.
 0080 00000308 07000000 00020000 0000048b  ................
 0090 65000000 05080200 00000004 af650000  e............e..
 00a0 000608a7 00000003 01080000 00000700  ................
 00b0 000000d8 05f12b02 00000800 00000005  ......+.........
 00c0 f25e0000 00000800 00000005 f7a10000  .^..............
 00d0 00080800 00000005 f8a10000 00100800  ................
 00e0 00000005 f9a10000 00180800 00000005  ................
 00f0 faa10000 00200800 00000005 fba10000  ..... ..........
 0100 00280800 00000005 fca10000 00300800  .(...........0..
 0110 00000005 fda10000 00380800 00000005  .........8......
 0120 fea10000 00400900 00000005 0001a100  .....@..........
 0130 00004809 00000000 050101a1 00000050  ..H............P
 0140 09000000 00050201 a1000000 58090000  ............X...
 0150 00000504 01630200 00600900 00000005  .....c...`......
 0160 06016902 00006809 00000000 0508015e  ..i...h........^
 0170 00000070 09000000 00050c01 5e000000  ...p........^...
 0180 74090000 0000050e 016c0000 00780900  t........l...x..
 0190 00000005 12014200 00008009 00000000  ......B.........
 01a0 05130150 00000082 09000000 00051401  ...P............
 01b0 6f020000 83090000 00000518 017f0200  o...............
 01c0 00880900 00000005 21017700 00009009  ........!.w.....
 01d0 00000000 05290194 00000098 09000000  .....)..........
 01e0 00052a01 94000000 a0090000 0000052b  ..*............+
 01f0 01940000 00a80900 00000005 2c019400  ............,...
 0200 0000b009 00000000 052e0129 000000b8  ...........)....
 0210 09000000 00052f01 5e000000 c0090000  ....../.^.......
 0220 00000531 01850200 00c4000a 00000000  ...1............
 0230 05960700 00000018 059c6302 00000800  ..........c.....
 0240 00000005 9d630200 00000800 00000005  .....c..........
 0250 9e690200 00080800 00000005 a25e0000  .i...........^..
 0260 00100006 08320200 000608ae 0000000b  .....2..........
 0270 a7000000 7f020000 0c820000 00000006  ................
 0280 082b0200 000ba700 00009502 00000c82  .+..............
 0290 00000013 0006089b 0200000d a7000000  ................
 02a0 02000000 0006303b 00000002 00000000  ......0;........
 02b0 06314200 00000700 00000018 070ef302  .1B.............
 02c0 00000800 00000007 0fab0200 00000800  ................
 02d0 00000007 10ab0200 00020800 00000007  ................
 02e0 11f30200 00080800 00000007 12f90200  ................
 02f0 00100006 08ab0200 000608a0 02000002  ................
 0300 00000000 0713b602 00000700 00000010  ................
 0310 08782f03 00000800 00000008 7a890000  .x/.........z...
 0320 00000800 00000008 7b960000 00080007  ........{.......
 0330 00000000 10090a48 03000008 00000000  .......H........
 0340 090b0a03 00000000 02000000 00090c2f  .............../
 0350 0300000e 00000000 0152a002 0000019b  .........R......
 0360 0300000f 00000000 01525e00 00000f00  .........R^.....
 0370 00000001 52f90200 000f0000 00000152  ....R..........R
 0380 5e000000 10696478 0001545e 00000010  ^....idx..T^....
 0390 6f757400 0155a002 00000011 00000000  out..U..........
 03a0 02665e00 000003b8 0300000f 00000000  .f^.............
 03b0 0266b803 00001200 13950200 00140000  .f..............
 03c0 00000120 a0020000 00000000 00000000  ... ............
 03d0 a8010000 00000000 019c9506 00001561  ...............a
 03e0 72670001 20950600 00000000 00160000  rg.. ...........
 03f0 00000122 9b060000 01671700 00000001  ...".....g......
 0400 23a00600 00000000 00170000 00000124  #..............$
 0410 ab020000 00000000 17000000 000125ab  ..............%.
 0420 02000000 00000018 00000000 0126a002  .............&..
 0430 00000816 00000000 0127a506 00000391  .........'......
 0440 f07d1600 00000001 29480300 000391e0  .}......)H......
 0450 7d190000 00000000 0000f800 00000000  }...............
 0460 0000ba05 00001a69 0001325e 00000000  .......i..2^....
 0470 0000001b 00000000 00000000 c8000000  ................
 0480 00000000 1a6a0001 345e0000 00000000  .....j..4^......
 0490 001b0000 00000000 0000a800 00000000  ................
 04a0 00001a72 000136ab 02000000 0000001a  ...r..6.........
 04b0 67000136 ab020000 00000000 1a620001  g..6.........b..
 04c0 36ab0200 00000000 00170000 00000137  6..............7
 04d0 f9020000 00000000 17000000 000137f9  ..............7.
 04e0 02000000 00000017 00000000 0137f902  .............7..
 04f0 00000000 00001c53 03000000 00000000  .......S........
 0500 00000000 00000001 453d0500 001d7903  ........E=....y.
 0510 00000000 00001d6e 03000000 0000001d  .......n........
 0520 63030000 00000000 1e000000 001f8403  c...............
 0530 00000000 0000208f 03000000 001c5303  ...... .......S.
 0540 00000000 00000000 00000000 00000146  ...............F
 0550 7c050000 1d790300 00000000 001d6e03  |....y........n.
 0560 00000000 00002163 0300001e 00000000  ......!c........
 0570 20840300 00208f03 00000000 22530300   .... ......"S..
 0580 00000000 00000000 00000000 0001471d  ..............G.
 0590 79030000 00000000 1d6e0300 00000000  y........n......
 05a0 00216303 00001e00 00000020 84030000  .!c........ ....
 05b0 208f0300 00000000 00002300 00000000   .........#.....
 05c0 0000003e 080000df 05000024 0150038f  ...>.......$.P..
 05d0 80012401 51013024 0152030a 01010023  ..$.Q.0$.R.....#
 05e0 00000000 00000000 47080000 fe050000  ........G.......
 05f0 24015003 8f800124 01510288 00002300  $.P....$.Q....#.
 0600 00000000 00000052 08000017 06000024  .......R.......$
 0610 0150030a 10270023 00000000 00000000  .P...'.#........
 0620 5e080000 30060000 24015003 8ff00000  ^...0...$.P.....
 0630 23000000 00000000 00690800 00560600  #........i...V..
 0640 00240150 038ff000 24015109 03000000  .$.P....$.Q.....
 0650 00000000 00002300 00000000 00000052  ......#........R
 0660 0800006f 06000024 0150030a 10270023  ...o...$.P...'.#
 0670 00000000 00000000 74080000 87060000  ........t.......
 0680 24015002 88000025 00000000 00000000  $.P....%........
 0690 7f080000 000608ff 02000013 f3020000  ................
 06a0 13f90200 000ba002 0000b606 00002682  ..............&.
 06b0 00000000 01001400 00000001 085e0000  .............^..
 06c0 00000000 00000000 00b00000 00000000  ................
 06d0 00019c1b 08000027 00000000 01085e00  .......'......^.
 06e0 00000000 00002700 00000001 081b0800  ......'.........
 06f0 00000000 00286172 6700010a ff020000  .....(arg.......
 0700 02916016 00000000 010b4803 00000291  ..`.......H.....
 0710 50170000 0000010d 21080000 00000000  P.......!.......
 0720 29000000 00010f21 08000080 9698001c  )......!........
 0730 9b030000 00000000 00000000 00000000  ................
 0740 01166907 00001dab 03000000 0000002a  ..i............*
 0750 00000000 00000000 88080000 24015001  ............$.P.
 0760 31240151 02830000 00230000 00000000  1$.Q.....#......
 0770 00009308 00009007 00002401 50038fe0  ..........$.P...
 0780 00240151 030ad002 24015203 0a000500  .$.Q....$.R.....
 0790 23000000 00000000 005e0800 00a90700  #........^......
 07a0 00240150 038fd000 00230000 00000000  .$.P.....#......
 07b0 0000bd03 0000c207 00002401 50038fe0  ..........$.P...
 07c0 00002300 00000000 0000009e 080000db  ..#.............
 07d0 07000024 0150038f e0000023 00000000  ...$.P.....#....
 07e0 00000000 a9080000 f4070000 24015003  ............$.P.
 07f0 8fd00000 23000000 00000000 00b40800  ....#...........
 0800 000d0800 00240150 038fe000 00250000  .....$.P.....%..
 0810 00000000 00007f08 00000006 08a10000  ................
 0820 00030805 00000000 2b000000 000aa869  ........+......i
 0830 0200002b 00000000 0aa96902 00002c00  ...+......i...,.
 0840 00000000 0000002d 00000000 00000000  .......-........
 0850 071d2e00 00000000 0000000b cf012d00  ..............-.
 0860 00000000 00000009 0e2d0000 00000000  .........-......
 0870 00000913 2d000000 00000000 00071b2c  ....-..........,
 0880 00000000 00000000 2d000000 00000000  ........-.......
 0890 0002572d 00000000 00000000 07182d00  ..W-..........-.
 08a0 00000000 00000007 192d0000 00000000  .........-......
 08b0 00000911 2d000000 00000000 00071a00  ....-...........
Contents of section .debug_abbrev:
 0000 01110125 0e130b03 0e1b0e55 17110110  ...%.......U....
 0010 17000002 1600030e 3a0b3b0b 49130000  ........:.;.I...
 0020 0324000b 0b3e0b03 0e000004 24000b0b  .$...>......$...
 0030 3e0b0308 0000050f 000b0b00 00060f00  >...............
 0040 0b0b4913 00000713 01030e0b 0b3a0b3b  ..I..........:.;
 0050 0b011300 00080d00 030e3a0b 3b0b4913  ..........:.;.I.
 0060 380b0000 090d0003 0e3a0b3b 05491338  8........:.;.I.8
 0070 0b00000a 1600030e 3a0b3b0b 00000b01  ........:.;.....
 0080 01491301 1300000c 21004913 2f0b0000  .I......!.I./...
 0090 0d260049 1300000e 2e01030e 3a0b3b0b  .&.I........:.;.
 00a0 27194913 200b0113 00000f05 00030e3a  '.I. ..........:
 00b0 0b3b0b49 13000010 34000308 3a0b3b0b  .;.I....4...:.;.
 00c0 49130000 112e013f 19030e3a 0b3b0b27  I......?...:.;.'
 00d0 19491320 0b341901 13000012 18000000  .I. .4..........
 00e0 13370049 13000014 2e013f19 030e3a0b  .7.I......?...:.
 00f0 3b0b2719 49131101 12074018 97421901  ;.'.I.....@..B..
 0100 13000015 05000308 3a0b3b0b 49130217  ........:.;.I...
 0110 00001634 00030e3a 0b3b0b49 13021800  ...4...:.;.I....
 0120 00173400 030e3a0b 3b0b4913 02170000  ..4...:.;.I.....
 0130 18340003 0e3a0b3b 0b49131c 0b000019  .4...:.;.I......
 0140 0b011101 12070113 00001a34 0003083a  ...........4...:
 0150 0b3b0b49 13021700 001b0b01 11011207  .;.I............
 0160 00001c1d 01311352 01551758 0b590b01  .....1.R.U.X.Y..
 0170 1300001d 05003113 02170000 1e0b0155  ......1........U
 0180 1700001f 34003113 02170000 20340031  ....4.1..... 4.1
 0190 13000021 05003113 0000221d 01311352  ...!..1..."..1.R
 01a0 01551758 0b590b00 00238982 01011101  .U.X.Y...#......
 01b0 31130113 0000248a 82010002 18914218  1.....$.......B.
 01c0 00002589 82010011 01311300 00262100  ..%......1...&!.
 01d0 49132f05 00002705 00030e3a 0b3b0b49  I./...'....:.;.I
 01e0 13021700 00283400 03083a0b 3b0b4913  .....(4...:.;.I.
 01f0 02180000 29340003 0e3a0b3b 0b49131c  ....)4...:.;.I..
 0200 0600002a 89820101 11013113 00002b34  ...*......1...+4
 0210 00030e3a 0b3b0b49 133f193c 1900002c  ...:.;.I.?.<...,
 0220 2e003f19 3c196e0e 030e0000 2d2e003f  ..?.<.n.....-..?
 0230 193c196e 0e030e3a 0b3b0b00 002e2e00  .<.n...:.;......
 0240 3f193c19 6e0e030e 3a0b3b05 000000    ?.<.n...:.;.... 
Contents of section .debug_loc:
 0000 00000000 00000000 00000000 00000000  ................
 0010 01005000 00000000 00000000 00000000  ..P.............
 0020 00000001 00680000 00000000 00000000  .....h..........
 0030 00000000 00000400 f301509f 00000000  ..........P.....
 0040 00000000 00000000 00000000 01006800  ..............h.
 0050 00000000 00000000 00000000 00000000  ................
 0060 00000000 00000000 00000000 00000001  ................
 0070 00640000 00000000 00000000 00000000  .d..............
 0080 00000100 64000000 00000000 00000000  ....d...........
 0090 00000000 00000000 00000000 00000000  ................
 00a0 00000000 00010066 00000000 00000000  .......f........
 00b0 00000000 00000000 01006600 00000000  ..........f.....
 00c0 00000000 00000000 00000000 00000000  ................
 00d0 00000000 00000000 00000001 00650000  .............e..
 00e0 00000000 00000000 00000000 00000100  ................
 00f0 65000000 00000000 00000000 00000000  e...............
 0100 00000000 00000000 00000000 00000000  ................
 0110 00020030 9f000000 00000000 00000000  ...0............
 0120 00000000 00010056 00000000 00000000  .......V........
 0130 00000000 00000000 00000000 00000000  ................
 0140 00000000 00000000 0200309f 00000000  ..........0.....
 0150 00000000 00000000 00000000 00000000  ................
 0160 00000000 00000000 00000000 02007404  ..............t.
 0170 00000000 00000000 00000000 00000000  ................
 0180 0200747e 00000000 00000000 00000000  ..t~............
 0190 00000000 05007000 37269f00 00000000  ......p.7&......
 01a0 00000000 00000000 0000000f 00747e94  .............t~.
 01b0 020affff 1a3f1e33 2437269f 00000000  .....?.3$7&.....
 01c0 00000000 00000000 00000000 00000000  ................
 01d0 00000000 00000000 00000000 02007402  ..............t.
 01e0 00000000 00000000 00000000 00000000  ................
 01f0 0200747c 00000000 00000000 00000000  ..t|............
 0200 00000000 05007100 37269f00 00000000  ......q.7&......
 0210 00000000 00000000 0000000f 00747c94  .............t|.
 0220 020affff 1a3f1e33 2437269f 00000000  .....?.3$7&.....
 0230 00000000 00000000 00000000 00000000  ................
 0240 00000000 00000000 00000000 02007400  ..............t.
 0250 00000000 00000000 00000000 00000000  ................
 0260 0200747a 00000000 00000000 00000000  ..tz............
 0270 00000000 05007200 37269f00 00000000  ......r.7&......
 0280 00000000 00000000 0000000f 00747a94  .............tz.
 0290 020affff 1a3f1e33 2437269f 00000000  .....?.3$7&.....
 02a0 00000000 00000000 00000000 00000000  ................
 02b0 00000000 00000000 00000000 03007302  ..............s.
 02c0 9f000000 00000000 00000000 00000000  ................
 02d0 00030073 7f9f0000 00000000 00000000  ...s............
 02e0 00000000 00000000 00000000 00000000  ................
 02f0 00000000 00000300 73019f00 00000000  ........s.......
 0300 00000000 00000000 00000003 00737e9f  .............s~.
 0310 00000000 00000000 00000000 00000000  ................
 0320 00000000 00000000 00000000 00000000  ................
 0330 01005300 00000000 00000000 00000000  ..S.............
 0340 00000003 00737d9f 00000000 00000000  .....s}.........
 0350 00000000 00000000 00000000 00000000  ................
 0360 00000000 00000000 0200389f 00000000  ..........8.....
 0370 00000000 00000000 00000000 00000000  ................
 0380 00000000 00000000 00000000 04008f80  ................
 0390 019f0000 00000000 00000000 00000000  ................
 03a0 00000000 00000000 00000000 00000000  ................
 03b0 00000500 70003726 9f000000 00000000  ....p.7&........
 03c0 00000000 00000000 000f0074 7e94020a  ...........t~...
 03d0 ffff1a3f 1e332437 269f0000 00000000  ...?.3$7&.......
 03e0 00000000 00000000 00000000 00000000  ................
 03f0 00000000 00000000 00000700 70003726  ............p.7&
 0400 38269f00 00000000 00000000 00000000  8&..............
 0410 00000011 00747e94 020affff 1a3f1e33  .....t~......?.3
 0420 24372638 269f0000 00000000 00000000  $7&8&...........
 0430 00000000 00000000 00000000 00000000  ................
 0440 00000000 00000200 389f0000 00000000  ........8.......
 0450 00000000 00000000 00000000 00000000  ................
 0460 00000000 00000000 00000400 8f80019f  ................
 0470 00000000 00000000 00000000 00000000  ................
 0480 00000000 00000000 00000000 00000000  ................
 0490 0200389f 00000000 00000000 00000000  ..8.............
 04a0 00000000 00000000 00000000 00000000  ................
 04b0 00000000 04008f80 019f0000 00000000  ................
 04c0 00000000 00000000 00000000 00000000  ................
 04d0 00000000 00000000 00000100 50000000  ............P...
 04e0 00000000 00000000 00000000 000400f3  ................
 04f0 01509f00 00000000 00000000 00000000  .P..............
 0500 00000000 00000000 00000000 00000000  ................
 0510 00000001 00510000 00000000 00000000  .....Q..........
 0520 00000000 00000400 f301519f 00000000  ..........Q.....
 0530 00000000 00000000 00000000 00000000  ................
 0540 00000000 00000000 00000000 0200309f  ..............0.
 0550 00000000 00000000 00000000 00000000  ................
 0560 01005000 00000000 00000000 00000000  ..P.............
 0570 00000000 00000000 00000000 00000000  ................
 0580 0000000a 00030000 00000000 00009f00  ................
 0590 00000000 00000000 00000000 000000    ............... 
Contents of section .debug_aranges:
 0000 3c000000 02000000 00000800 00000000  <...............
 0010 00000000 00000000 a8010000 00000000  ................
 0020 00000000 00000000 b0000000 00000000  ................
 0030 00000000 00000000 00000000 00000000  ................
Contents of section .debug_ranges:
 0000 00000000 00000000 00000000 00000000  ................
 0010 00000000 00000000 00000000 00000000  ................
 0020 00000000 00000000 00000000 00000000  ................
 0030 00000000 00000000 00000000 00000000  ................
 0040 00000000 00000000 00000000 00000000  ................
 0050 00000000 00000000 00000000 00000000  ................
 0060 00000000 00000000 00000000 00000000  ................
 0070 00000000 00000000 00000000 00000000  ................
 0080 00000000 00000000 00000000 00000000  ................
 0090 00000000 00000000 00000000 00000000  ................
 00a0 00000000 00000000 00000000 00000000  ................
 00b0 00000000 00000000 00000000 00000000  ................
 00c0 00000000 00000000 00000000 00000000  ................
 00d0 00000000 00000000 00000000 00000000  ................
 00e0 00000000 00000000 00000000 00000000  ................
 00f0 00000000 00000000 00000000 00000000  ................
 0100 00000000 00000000 00000000 00000000  ................
 0110 00000000 00000000 00000000 00000000  ................
 0120 00000000 00000000 00000000 00000000  ................
 0130 00000000 00000000 00000000 00000000  ................
Contents of section .debug_line:
 0000 15020000 0200e900 00000401 fb0e0d00  ................
 0010 01010101 00000001 0000012f 7573722f  .........../usr/
 0020 696e636c 7564652f 61617263 6836342d  include/aarch64-
 0030 6c696e75 782d676e 752f6269 7473002f  linux-gnu/bits./
 0040 7573722f 6c69622f 6763632f 61617263  usr/lib/gcc/aarc
 0050 6836342d 6c696e75 782d676e 752f352f  h64-linux-gnu/5/
 0060 696e636c 75646500 2f757372 2f696e63  include./usr/inc
 0070 6c756465 00007632 2e630000 00007374  lude..v2.c....st
 0080 64696f32 2e680001 00007374 64646566  dio2.h....stddef
 0090 2e680002 00007479 7065732e 68000100  .h....types.h...
 00a0 006c6962 696f2e68 00030000 73746469  .libio.h....stdi
 00b0 6e742e68 00030000 636f6d6d 6f6e2e68  nt.h....common.h
 00c0 00000000 74696d65 2e680003 00006d79  ....time.h....my
 00d0 74696d65 722e6800 00000073 7464696f  timer.h....stdio
 00e0 2e680003 0000756e 69737464 2e680003  .h....unistd.h..
 00f0 00000000 09020000 00000000 00000320  ............... 
 0100 0126037a 2e96037a 20222121 22244030  .&.z...z "!!"$@0
 0110 2f000204 01840002 04036e00 02040321  /.........n....!
 0120 00020403 21000204 031e0002 04032100  ....!.........!.
 0130 0204031f 00020403 21000204 03210002  ........!....!..
 0140 04032c00 02040321 00020403 031b2000  ..,....!...... .
 0150 02040303 6e2e0002 04030312 20000204  ....n....... ...
 0160 03036620 00020403 031a2000 02040303  ..f ...... .....
 0170 6d200002 04030313 20000204 03036f3c  m ...... .....o<
 0180 00020403 03112000 02040303 6d200002  ...... .....m ..
 0190 04030313 20000204 03036d20 00020403  .... .....m ....
 01a0 03132000 02040303 6d200002 04030313  .. .....m ......
 01b0 3c000204 03036e20 00020403 03125800  <.....n ......X.
 01c0 02040303 6f200002 0403036d 582c0318  ....o .....mX,..
 01d0 4a42037a 2023302f 020a0001 01000902  JB.z #0/........
 01e0 00000000 00000000 1a280378 2e520378  .........(.x.R.x
 01f0 20030b4a 040203d4 003c0401 03a97f20   ..J.....<..... 
 0200 22310402 03d2002e 040103af 7f4a2f2a  "1...........J/*
 0210 35231d23 020a0001 01                 5#.#.....       
Contents of section .debug_str:
 0000 74765f6e 73656300 6d797469 6d657200  tv_nsec.mytimer.
 0010 5f6f6c64 5f6f6666 73657400 5f5f7072  _old_offset.__pr
 0020 696e7466 5f63686b 00706978 656c0067  intf_chk.pixel.g
 0030 65745f65 715f6761 6d6d6100 5f494f5f  et_eq_gamma._IO_
 0040 46494c45 0075736c 65657000 74765f73  FILE.usleep.tv_s
 0050 6563005f 494f5f73 6176655f 656e6400  ec._IO_save_end.
 0060 73686f72 7420696e 74007369 7a655f74  short int.size_t
 0070 00537263 52474200 73697a65 74797065  .SrcRGB.sizetype
 0080 005f6f66 66736574 00756e74 696c005f  ._offset.until._
 0090 494f5f77 72697465 5f707472 005f666c  IO_write_ptr._fl
 00a0 61677300 5f5f7379 7363616c 6c5f736c  ags.__syscall_sl
 00b0 6f6e675f 74005f49 4f5f6275 665f6261  ong_t._IO_buf_ba
 00c0 73650075 70646174 655f5372 63524742  se.update_SrcRGB
 00d0 005f6c6f 636b0076 322e6300 6d797469  ._lock.v2.c.myti
 00e0 6d65725f 73746172 74005f6d 61726b65  mer_start._marke
 00f0 7273005f 494f5f72 6561645f 656e6400  rs._IO_read_end.
 0100 6c6f6f70 345f7632 0075696e 74385f74  loop4_v2.uint8_t
 0110 0074696d 65720064 75726174 696f6e5f  .timer.duration_
 0120 75730077 69647468 006c6f6e 67206c6f  us.width.long lo
 0130 6e672069 6e74006d 7974696d 65725f70  ng int.mytimer_p
 0140 72696e74 5f656c61 70736564 00474e55  rint_elapsed.GNU
 0150 20433939 20352e34 2e302032 30313630   C99 5.4.0 20160
 0160 36303920 2d6d6c69 74746c65 2d656e64  609 -mlittle-end
 0170 69616e20 2d6d6162 693d6c70 3634202d  ian -mabi=lp64 -
 0180 67202d4f 32202d73 74643d67 6e753939  g -O2 -std=gnu99
 0190 202d6673 7461636b 2d70726f 74656374   -fstack-protect
 01a0 6f722d73 74726f6e 67006d65 6d736574  or-strong.memset
 01b0 006c6f6e 6720696e 74007072 696e7466  .long int.printf
 01c0 00646573 74726f79 005f6375 725f636f  .destroy._cur_co
 01d0 6c756d6e 005f5f70 61643400 5f706f73  lumn.__pad4._pos
 01e0 006d7974 696d6572 5f656c61 70736564  .mytimer_elapsed
 01f0 00617267 76005f76 7461626c 655f6f66  .argv._vtable_of
 0200 66736574 00756e73 69676e65 64206368  fset.unsigned ch
 0210 61720062 696e5f77 69647468 00617267  ar.bin_width.arg
 0220 63007369 676e6564 20636861 72007044  c.signed char.pD
 0230 73745247 4200756e 7369676e 65642069  stRGB.unsigned i
 0240 6e74005f 494f5f6d 61726b65 72005f73  nt._IO_marker._s
 0250 686f7274 62756600 70537263 52474200  hortbuf.pSrcRGB.
 0260 41726775 6d656e74 005f5f6f 66663634  Argument.__off64
 0270 5f74005f 5f706164 32005f49 4f5f7772  _t.__pad2._IO_wr
 0280 6974655f 62617365 005f5f70 61643300  ite_base.__pad3.
 0290 646f5f75 73656c65 73730073 74617274  do_useless.start
 02a0 005f494f 5f627566 5f656e64 006f7574  ._IO_buf_end.out
 02b0 5f62006f 75745f67 00636861 72007569  _b.out_g.char.ui
 02c0 6e743136 5f74006d 61696e00 65715f67  nt16_t.main.eq_g
 02d0 616d6d61 005f5f70 61643100 6f75745f  amma.__pad1.out_
 02e0 72005f6e 65787400 2f686f6d 652f7562  r._next./home/ub
 02f0 756e7475 2f776f72 6b2f6e66 732f6465  untu/work/nfs/de
 0300 6c657465 6d653031 005f5f70 61643500  leteme01.__pad5.
 0310 68656967 6874005f 494f5f62 61636b75  height._IO_backu
 0320 705f6261 73650073 686f7274 20756e73  p_base.short uns
 0330 69676e65 6420696e 74005f5f 666d7400  igned int.__fmt.
 0340 67616d6d 615f636f 72726563 74696f6e  gamma_correction
 0350 006c6f6e 6720756e 7369676e 65642069  .long unsigned i
 0360 6e74005f 494f5f77 72697465 5f656e64  nt._IO_write_end
 0370 005f5f74 696d655f 74005f66 696c656e  .__time_t._filen
 0380 6f005f63 6861696e 005f5f6f 66665f74  o._chain.__off_t
 0390 005f6d79 74696d65 72007374 64696e00  ._mytimer.stdin.
 03a0 5f666c61 67733200 5f6d6f64 65005f49  _flags2._mode._I
 03b0 4f5f7265 61645f62 61736500 74696d65  O_read_base.time
 03c0 73706563 005f756e 75736564 32005f49  spec._unused2._I
 03d0 4f5f7361 76655f62 61736500 5f5f7374  O_save_base.__st
 03e0 61636b5f 63686b5f 6661696c 005f6172  ack_chk_fail._ar
 03f0 67756d65 6e74005f 73627566 005f494f  gument._sbuf._IO
 0400 5f726561 645f7074 72004473 74524742  _read_ptr.DstRGB
 0410 00737464 6f757400 5f494f5f 6c6f636b  .stdout._IO_lock
 0420 5f740069 6e697400                    _t.init.        
Contents of section .comment:
 0000 00474343 3a202855 62756e74 752f4c69  .GCC: (Ubuntu/Li
 0010 6e61726f 20352e34 2e302d36 7562756e  naro 5.4.0-6ubun
 0020 7475317e 31362e30 342e3429 20352e34  tu1~16.04.4) 5.4
 0030 2e302032 30313630 36303900           .0 20160609.    
Contents of section .debug_frame:
 0000 0c000000 ffffffff 01000478 1e0c1f00  ...........x....
 0010 44000000 00000000 00000000 00000000  D...............
 0020 a8010000 00000000 410ee002 9d2c9e2b  ........A....,.+
 0030 430d1d41 932a9429 46972698 25439528  C..A.*.)F.&.%C.(
 0040 9627025a 0adeddd7 d8d5d6d3 d40c1f00  .'.Z............
 0050 410b0000 00000000 34000000 00000000  A.......4.......
 0060 00000000 00000000 b0000000 00000000  ................
 0070 410e609d 0c9e0b43 0d1d4195 0847930a  A.`....C..A..G..
 0080 94095e0a deddd5d3 d40c1f00 410b0000  ..^.........A...

Disassembly of section .text:

0000000000000000 <loop4_v2>:
   0:	a9aa7bfd 	stp	x29, x30, [sp,#-352]!
   4:	d2802022 	mov	x2, #0x101                 	// #257
   8:	52800001 	mov	w1, #0x0                   	// #0
   c:	910003fd 	mov	x29, sp
  10:	a90153f3 	stp	x19, x20, [sp,#16]
  14:	90000013 	adrp	x19, 0 <__stack_chk_guard>
  18:	91000263 	add	x3, x19, #0x0
  1c:	a90363f7 	stp	x23, x24, [sp,#48]
  20:	f9400064 	ldr	x4, [x3]
  24:	f900afa4 	str	x4, [x29,#344]
  28:	d2800004 	mov	x4, #0x0                   	// #0
  2c:	aa0003f8 	mov	x24, x0
  30:	910143a0 	add	x0, x29, #0x50
  34:	a9025bf5 	stp	x21, x22, [sp,#32]
  38:	a940d317 	ldp	x23, x20, [x24,#8]
  3c:	79400716 	ldrh	w22, [x24,#2]
  40:	79400315 	ldrh	w21, [x24]
  44:	94000000 	bl	0 <memset>
  48:	aa1803e1 	mov	x1, x24
  4c:	910143a0 	add	x0, x29, #0x50
  50:	94000000 	bl	0 <get_eq_gamma>
  54:	5284e200 	mov	w0, #0x2710                	// #10000
  58:	94000000 	bl	0 <usleep>
  5c:	910103a0 	add	x0, x29, #0x40
  60:	94000000 	bl	0 <mytimer_start>
  64:	340007d6 	cbz	w22, 15c <loop4_v2+0x15c>
  68:	510006a8 	sub	w8, w21, #0x1
  6c:	52800061 	mov	w1, #0x3                   	// #3
  70:	d2800060 	mov	x0, #0x3                   	// #3
  74:	0b1506a9 	add	w9, w21, w21, lsl #1
  78:	52800007 	mov	w7, #0x0                   	// #0
  7c:	52800006 	mov	w6, #0x0                   	// #0
  80:	9ba10108 	umaddl	x8, w8, w1, x0
  84:	34000655 	cbz	w21, 14c <loop4_v2+0x14c>
  88:	93407ce4 	sxtw	x4, w7
  8c:	8b040105 	add	x5, x8, x4
  90:	8b040283 	add	x3, x20, x4
  94:	8b050285 	add	x5, x20, x5
  98:	8b0406e4 	add	x4, x23, x4, lsl #1
  9c:	7940088b 	ldrh	w11, [x4,#4]
  a0:	79400482 	ldrh	w2, [x4,#2]
  a4:	7840648a 	ldrh	w10, [x4],#6
  a8:	531c6d60 	lsl	w0, w11, #4
  ac:	531c6c41 	lsl	w1, w2, #4
  b0:	4b0b0000 	sub	w0, w0, w11
  b4:	4b020021 	sub	w1, w1, w2
  b8:	531c6d42 	lsl	w2, w10, #4
  bc:	4b0a0042 	sub	w2, w2, w10
  c0:	531d7000 	lsl	w0, w0, #3
  c4:	531d7021 	lsl	w1, w1, #3
  c8:	130f7c0a 	asr	w10, w0, #15
  cc:	130f7c2d 	asr	w13, w1, #15
  d0:	d347382b 	ubfx	x11, x1, #7, #8
  d4:	d13a83a1 	sub	x1, x29, #0xea0
  d8:	531d7042 	lsl	w2, w2, #3
  dc:	130f7c4c 	asr	w12, w2, #15
  e0:	d3473800 	ubfx	x0, x0, #7, #8
  e4:	8b2ac021 	add	x1, x1, w10, sxtw
  e8:	d13a83aa 	sub	x10, x29, #0xea0
  ec:	8b2dc14d 	add	x13, x10, w13, sxtw
  f0:	d347384a 	ubfx	x10, x2, #7, #8
  f4:	397bc02e 	ldrb	w14, [x1,#3824]
  f8:	397bc422 	ldrb	w2, [x1,#3825]
  fc:	d13a83a1 	sub	x1, x29, #0xea0
 100:	4b0e0042 	sub	w2, w2, w14
 104:	8b2cc02c 	add	x12, x1, w12, sxtw
 108:	1b007c40 	mul	w0, w2, w0
 10c:	0b8021c0 	add	w0, w14, w0, asr #8
 110:	39000860 	strb	w0, [x3,#2]
 114:	397bc1a0 	ldrb	w0, [x13,#3824]
 118:	397bc5a1 	ldrb	w1, [x13,#3825]
 11c:	4b000021 	sub	w1, w1, w0
 120:	1b0b7c21 	mul	w1, w1, w11
 124:	0b812001 	add	w1, w0, w1, asr #8
 128:	39000461 	strb	w1, [x3,#1]
 12c:	397bc181 	ldrb	w1, [x12,#3824]
 130:	397bc580 	ldrb	w0, [x12,#3825]
 134:	4b010000 	sub	w0, w0, w1
 138:	1b0a7c00 	mul	w0, w0, w10
 13c:	0b802020 	add	w0, w1, w0, asr #8
 140:	38003460 	strb	w0, [x3],#3
 144:	eb0300bf 	cmp	x5, x3
 148:	54fffaa1 	b.ne	9c <loop4_v2+0x9c>
 14c:	110004c6 	add	w6, w6, #0x1
 150:	0b0900e7 	add	w7, w7, w9
 154:	6b0602df 	cmp	w22, w6
 158:	54fff961 	b.ne	84 <loop4_v2+0x84>
 15c:	90000001 	adrp	x1, 0 <loop4_v2>
 160:	910103a0 	add	x0, x29, #0x40
 164:	91000021 	add	x1, x1, #0x0
 168:	91000273 	add	x19, x19, #0x0
 16c:	94000000 	bl	0 <mytimer_print_elapsed>
 170:	5284e200 	mov	w0, #0x2710                	// #10000
 174:	94000000 	bl	0 <usleep>
 178:	aa1803e0 	mov	x0, x24
 17c:	94000000 	bl	0 <do_useless>
 180:	f940afa2 	ldr	x2, [x29,#344]
 184:	f9400261 	ldr	x1, [x19]
 188:	ca010041 	eor	x1, x2, x1
 18c:	b50000c1 	cbnz	x1, 1a4 <loop4_v2+0x1a4>
 190:	a94153f3 	ldp	x19, x20, [sp,#16]
 194:	a9425bf5 	ldp	x21, x22, [sp,#32]
 198:	a94363f7 	ldp	x23, x24, [sp,#48]
 19c:	a8d67bfd 	ldp	x29, x30, [sp],#352
 1a0:	d65f03c0 	ret
 1a4:	94000000 	bl	0 <__stack_chk_fail>

Disassembly of section .text.startup:

0000000000000000 <main>:
   0:	a9ba7bfd 	stp	x29, x30, [sp,#-96]!
   4:	5280a002 	mov	w2, #0x500                 	// #1280
   8:	52805a01 	mov	w1, #0x2d0                 	// #720
   c:	910003fd 	mov	x29, sp
  10:	f90013f5 	str	x21, [sp,#32]
  14:	90000015 	adrp	x21, 0 <__stack_chk_guard>
  18:	910002a3 	add	x3, x21, #0x0
  1c:	910103a0 	add	x0, x29, #0x40
  20:	f9400064 	ldr	x4, [x3]
  24:	f9002fa4 	str	x4, [x29,#88]
  28:	d2800004 	mov	x4, #0x0                   	// #0
  2c:	a90153f3 	stp	x19, x20, [sp,#16]
  30:	d292cff4 	mov	x20, #0x967f                	// #38527
  34:	90000013 	adrp	x19, 0 <main>
  38:	f2a01314 	movk	x20, #0x98, lsl #16
  3c:	91000273 	add	x19, x19, #0x0
  40:	94000000 	bl	0 <init>
  44:	9100c3a0 	add	x0, x29, #0x30
  48:	94000000 	bl	0 <mytimer_start>
  4c:	910103a0 	add	x0, x29, #0x40
  50:	94000000 	bl	0 <main>
  54:	53001c02 	uxtb	w2, w0
  58:	aa1303e1 	mov	x1, x19
  5c:	52800020 	mov	w0, #0x1                   	// #1
  60:	94000000 	bl	0 <__printf_chk>
  64:	910103a0 	add	x0, x29, #0x40
  68:	94000000 	bl	0 <update_SrcRGB>
  6c:	9100c3a0 	add	x0, x29, #0x30
  70:	94000000 	bl	0 <mytimer_elapsed>
  74:	eb14001f 	cmp	x0, x20
  78:	54fffead 	b.le	4c <main+0x4c>
  7c:	910103a0 	add	x0, x29, #0x40
  80:	910002b5 	add	x21, x21, #0x0
  84:	94000000 	bl	0 <destroy>
  88:	f9402fa0 	ldr	x0, [x29,#88]
  8c:	f94002a1 	ldr	x1, [x21]
  90:	ca010001 	eor	x1, x0, x1
  94:	52800000 	mov	w0, #0x0                   	// #0
  98:	b50000a1 	cbnz	x1, ac <main+0xac>
  9c:	a94153f3 	ldp	x19, x20, [sp,#16]
  a0:	f94013f5 	ldr	x21, [sp,#32]
  a4:	a8c67bfd 	ldp	x29, x30, [sp],#96
  a8:	d65f03c0 	ret
  ac:	94000000 	bl	0 <__stack_chk_fail>
